ARM GAS  D:\msys64\tmp\ccirTI0t.s 			page 1


   1              		.cpu cortex-m4
   2              		.arch armv7e-m
   3              		.fpu fpv4-sp-d16
   4              		.eabi_attribute 27, 1
   5              		.eabi_attribute 28, 1
   6              		.eabi_attribute 20, 1
   7              		.eabi_attribute 21, 1
   8              		.eabi_attribute 23, 3
   9              		.eabi_attribute 24, 1
  10              		.eabi_attribute 25, 1
  11              		.eabi_attribute 26, 1
  12              		.eabi_attribute 30, 6
  13              		.eabi_attribute 34, 1
  14              		.eabi_attribute 18, 4
  15              		.file	"bmi088.c"
  16              		.text
  17              	.Ltext0:
  18              		.cfi_sections	.debug_frame
  19              		.file 1 "BMI088/bmi088.c"
  20              		.global	BMI088_ACCEL_SEN
  21              		.section	.data.BMI088_ACCEL_SEN,"aw"
  22              		.align	2
  25              	BMI088_ACCEL_SEN:
  26 0000 E741EB3A 		.word	988496359
  27              		.global	BMI088_GYRO_SEN
  28              		.section	.data.BMI088_GYRO_SEN,"aw"
  29              		.align	2
  32              	BMI088_GYRO_SEN:
  33 0000 58A08B3A 		.word	982229080
  34              		.global	gyro
  35              		.section	.bss.gyro,"aw",%nobits
  36              		.align	2
  39              	gyro:
  40 0000 00000000 		.space	12
  40      00000000 
  40      00000000 
  41              		.global	accel
  42              		.section	.bss.accel,"aw",%nobits
  43              		.align	2
  46              	accel:
  47 0000 00000000 		.space	12
  47      00000000 
  47      00000000 
  48              		.global	Temperature
  49              		.section	.bss.Temperature,"aw",%nobits
  50              		.align	2
  53              	Temperature:
  54 0000 00000000 		.space	4
  55              		.global	temp
  56              		.section	.bss.temp,"aw",%nobits
  57              		.align	2
  60              	temp:
  61 0000 00000000 		.space	4
  62              		.global	i
  63              		.section	.bss.i,"aw",%nobits
  66              	i:
  67 0000 00       		.space	1
ARM GAS  D:\msys64\tmp\ccirTI0t.s 			page 2


  68              		.global	buf
  69              		.section	.bss.buf,"aw",%nobits
  70              		.align	2
  73              	buf:
  74 0000 00000000 		.space	6
  74      0000
  75              		.global	buffer
  76              		.section	.bss.buffer,"aw",%nobits
  77              		.align	2
  80              	buffer:
  81 0000 00000000 		.space	8
  81      00000000 
  82              		.global	pTxData
  83              		.section	.bss.pTxData,"aw",%nobits
  86              	pTxData:
  87 0000 00       		.space	1
  88              		.global	pRxData
  89              		.section	.bss.pRxData,"aw",%nobits
  92              	pRxData:
  93 0000 00       		.space	1
  94              		.global	pTxData_gyro
  95              		.section	.bss.pTxData_gyro,"aw",%nobits
  98              	pTxData_gyro:
  99 0000 00       		.space	1
 100              		.global	pRxData_gyro
 101              		.section	.bss.pRxData_gyro,"aw",%nobits
 104              	pRxData_gyro:
 105 0000 00       		.space	1
 106              		.global	pTxData_Temperature
 107              		.section	.bss.pTxData_Temperature,"aw",%nobits
 110              	pTxData_Temperature:
 111 0000 00       		.space	1
 112              		.global	pRxData_Temperature
 113              		.section	.bss.pRxData_Temperature,"aw",%nobits
 116              	pRxData_Temperature:
 117 0000 00       		.space	1
 118              		.global	bmi088_raw_temp
 119              		.section	.bss.bmi088_raw_temp,"aw",%nobits
 120              		.align	1
 123              	bmi088_raw_temp:
 124 0000 0000     		.space	2
 125              		.global	buf_temp
 126              		.section	.bss.buf_temp,"aw",%nobits
 127              		.align	2
 130              	buf_temp:
 131 0000 00000000 		.space	8
 131      00000000 
 132              		.section	.text.BMI088_Accel_Init,"ax",%progbits
 133              		.align	1
 134              		.global	BMI088_Accel_Init
 135              		.syntax unified
 136              		.thumb
 137              		.thumb_func
 139              	BMI088_Accel_Init:
 140              	.LFB134:
   1:BMI088/bmi088.c **** #include "bmi088.h"
   2:BMI088/bmi088.c **** #include "stdint.h"
ARM GAS  D:\msys64\tmp\ccirTI0t.s 			page 3


   3:BMI088/bmi088.c **** #include "main.h"
   4:BMI088/bmi088.c **** #include "cmsis_os2.h"
   5:BMI088/bmi088.c **** 
   6:BMI088/bmi088.c **** static void BMI088_read_muli_reg(uint8_t reg, uint8_t *buf, uint8_t len);
   7:BMI088/bmi088.c **** uint8_t BMI088_read_write_byte(uint8_t txdata);
   8:BMI088/bmi088.c **** 
   9:BMI088/bmi088.c **** 
  10:BMI088/bmi088.c **** #define BMI088_TEMP_FACTOR 0.125f
  11:BMI088/bmi088.c **** #define BMI088_TEMP_OFFSET 23.0f
  12:BMI088/bmi088.c **** 
  13:BMI088/bmi088.c **** #define BMI088_ACCEL_NS_L HAL_GPIO_WritePin(GPIOA,GPIO_PIN_4,GPIO_PIN_RESET)
  14:BMI088/bmi088.c **** #define BMI088_ACCEL_NS_H HAL_GPIO_WritePin(GPIOA,GPIO_PIN_4,GPIO_PIN_SET)
  15:BMI088/bmi088.c **** 
  16:BMI088/bmi088.c **** #define BMI088_accel_read_muli_reg(reg, data, len) \
  17:BMI088/bmi088.c ****     {                                              \
  18:BMI088/bmi088.c ****         BMI088_ACCEL_NS_L;                       \
  19:BMI088/bmi088.c ****         BMI088_read_write_byte((reg) | 0x80);      \
  20:BMI088/bmi088.c ****         BMI088_read_muli_reg(reg, data, len);      \
  21:BMI088/bmi088.c ****         BMI088_ACCEL_NS_H;                       \
  22:BMI088/bmi088.c ****     }
  23:BMI088/bmi088.c **** 
  24:BMI088/bmi088.c **** #define BMI088_TEMP_M 0x22
  25:BMI088/bmi088.c **** 
  26:BMI088/bmi088.c **** 
  27:BMI088/bmi088.c **** 
  28:BMI088/bmi088.c **** float BMI088_ACCEL_SEN = BMI088_ACCEL_6G_SEN;   
  29:BMI088/bmi088.c **** float BMI088_GYRO_SEN = BMI088_GYRO_2000_SEN;
  30:BMI088/bmi088.c **** float gyro[3];
  31:BMI088/bmi088.c **** float accel[3];
  32:BMI088/bmi088.c **** float Temperature;
  33:BMI088/bmi088.c **** float temp;
  34:BMI088/bmi088.c **** uint8_t i = 0;
  35:BMI088/bmi088.c **** uint8_t buf[6] = {0};
  36:BMI088/bmi088.c **** uint8_t buffer[8] = {0};
  37:BMI088/bmi088.c **** uint8_t pTxData;
  38:BMI088/bmi088.c **** uint8_t pRxData;
  39:BMI088/bmi088.c **** uint8_t pTxData_gyro;
  40:BMI088/bmi088.c **** uint8_t pRxData_gyro;
  41:BMI088/bmi088.c **** uint8_t pTxData_Temperature;
  42:BMI088/bmi088.c **** uint8_t pRxData_Temperature;
  43:BMI088/bmi088.c **** int16_t bmi088_raw_temp;
  44:BMI088/bmi088.c **** uint8_t buf_temp[8] = {0};
  45:BMI088/bmi088.c **** 
  46:BMI088/bmi088.c **** extern SPI_HandleTypeDef hspi1;
  47:BMI088/bmi088.c **** 
  48:BMI088/bmi088.c **** void BMI088_Accel_Init()
  49:BMI088/bmi088.c **** {
 141              		.loc 1 49 1
 142              		.cfi_startproc
 143              		@ args = 0, pretend = 0, frame = 0
 144              		@ frame_needed = 1, uses_anonymous_args = 0
 145 0000 80B5     		push	{r7, lr}
 146              	.LCFI0:
 147              		.cfi_def_cfa_offset 8
 148              		.cfi_offset 7, -8
 149              		.cfi_offset 14, -4
 150 0002 00AF     		add	r7, sp, #0
ARM GAS  D:\msys64\tmp\ccirTI0t.s 			page 4


 151              	.LCFI1:
 152              		.cfi_def_cfa_register 7
  50:BMI088/bmi088.c ****     HAL_GPIO_WritePin(GPIOA,GPIO_PIN_4,GPIO_PIN_RESET);    //PA4ÁΩÆÈõ∂ÔºåÁâáÈÄâÂä†ÈÄüÂ∫¶ËÆ°
 153              		.loc 1 50 5
 154 0004 0022     		movs	r2, #0
 155 0006 1021     		movs	r1, #16
 156 0008 2848     		ldr	r0, .L6
 157 000a FFF7FEFF 		bl	HAL_GPIO_WritePin
  51:BMI088/bmi088.c ****     pTxData = (0x7E & 0x7F);
 158              		.loc 1 51 13
 159 000e 284B     		ldr	r3, .L6+4
 160 0010 7E22     		movs	r2, #126
 161 0012 1A70     		strb	r2, [r3]
  52:BMI088/bmi088.c ****     HAL_SPI_Transmit(&hspi1,&pTxData,1,1000);
 162              		.loc 1 52 5
 163 0014 4FF47A73 		mov	r3, #1000
 164 0018 0122     		movs	r2, #1
 165 001a 2549     		ldr	r1, .L6+4
 166 001c 2548     		ldr	r0, .L6+8
 167 001e FFF7FEFF 		bl	HAL_SPI_Transmit
  53:BMI088/bmi088.c ****     //HAL_SPI_Transmit_DMA(&hspi1,&pTxData,1);
  54:BMI088/bmi088.c ****     while(HAL_SPI_GetState(&hspi1) == HAL_SPI_STATE_BUSY_TX); //Á≠âÂæÖÊï∞ÊçÆÂèëÈÄÅÂÆåÊàê
 168              		.loc 1 54 10
 169 0022 00BF     		nop
 170              	.L2:
 171              		.loc 1 54 11 discriminator 1
 172 0024 2348     		ldr	r0, .L6+8
 173 0026 FFF7FEFF 		bl	HAL_SPI_GetState
 174 002a 0346     		mov	r3, r0
 175              		.loc 1 54 36 discriminator 1
 176 002c 032B     		cmp	r3, #3
 177 002e F9D0     		beq	.L2
  55:BMI088/bmi088.c ****     pTxData = 0xB6;
 178              		.loc 1 55 13
 179 0030 1F4B     		ldr	r3, .L6+4
 180 0032 B622     		movs	r2, #182
 181 0034 1A70     		strb	r2, [r3]
  56:BMI088/bmi088.c ****     HAL_SPI_Transmit(&hspi1,&pTxData,1,1000);
 182              		.loc 1 56 5
 183 0036 4FF47A73 		mov	r3, #1000
 184 003a 0122     		movs	r2, #1
 185 003c 1C49     		ldr	r1, .L6+4
 186 003e 1D48     		ldr	r0, .L6+8
 187 0040 FFF7FEFF 		bl	HAL_SPI_Transmit
  57:BMI088/bmi088.c ****     // HAL_SPI_Transmit_DMA(&hspi1,&pTxData,1);
  58:BMI088/bmi088.c ****     while(HAL_SPI_GetState(&hspi1) == HAL_SPI_STATE_BUSY_TX); //Á≠âÂæÖÊï∞ÊçÆÂèëÈÄÅÂÆåÊàê
 188              		.loc 1 58 10
 189 0044 00BF     		nop
 190              	.L3:
 191              		.loc 1 58 11 discriminator 1
 192 0046 1B48     		ldr	r0, .L6+8
 193 0048 FFF7FEFF 		bl	HAL_SPI_GetState
 194 004c 0346     		mov	r3, r0
 195              		.loc 1 58 36 discriminator 1
 196 004e 032B     		cmp	r3, #3
 197 0050 F9D0     		beq	.L3
  59:BMI088/bmi088.c ****     HAL_GPIO_WritePin(GPIOA,GPIO_PIN_4,GPIO_PIN_SET);    //PA4ÁΩÆ1ÔºåÂèñÊ∂àÁâáÈÄâÂä†ÈÄüÂ∫¶ËÆ°
ARM GAS  D:\msys64\tmp\ccirTI0t.s 			page 5


 198              		.loc 1 59 5
 199 0052 0122     		movs	r2, #1
 200 0054 1021     		movs	r1, #16
 201 0056 1548     		ldr	r0, .L6
 202 0058 FFF7FEFF 		bl	HAL_GPIO_WritePin
  60:BMI088/bmi088.c ****     //Âä†ÈÄüÂ∫¶ËÆ°Â§ç‰ΩçÂêéÈªòËÆ§ÊòØÊöÇÂÅúÊ®°ÂºèÔºåËøô9Ë°å‰ª£Á†ÅÔºåÂêëÂú∞ÂùÄ0x7DÂ§ÑÂÜôÂÖ•0x04ÂÄºÔºå
  61:BMI088/bmi088.c ****     HAL_GPIO_WritePin(GPIOA,GPIO_PIN_4,GPIO_PIN_RESET);    //PA4ÁΩÆÈõ∂ÔºåÁâáÈÄâÂä†ÈÄüÂ∫¶ËÆ°
 203              		.loc 1 61 5
 204 005c 0022     		movs	r2, #0
 205 005e 1021     		movs	r1, #16
 206 0060 1248     		ldr	r0, .L6
 207 0062 FFF7FEFF 		bl	HAL_GPIO_WritePin
  62:BMI088/bmi088.c ****     pTxData = (0x7D & 0x7F);
 208              		.loc 1 62 13
 209 0066 124B     		ldr	r3, .L6+4
 210 0068 7D22     		movs	r2, #125
 211 006a 1A70     		strb	r2, [r3]
  63:BMI088/bmi088.c ****     HAL_SPI_Transmit(&hspi1,&pTxData,1,1000);
 212              		.loc 1 63 5
 213 006c 4FF47A73 		mov	r3, #1000
 214 0070 0122     		movs	r2, #1
 215 0072 0F49     		ldr	r1, .L6+4
 216 0074 0F48     		ldr	r0, .L6+8
 217 0076 FFF7FEFF 		bl	HAL_SPI_Transmit
  64:BMI088/bmi088.c ****     // HAL_SPI_Transmit_DMA(&hspi1,&pTxData,1);
  65:BMI088/bmi088.c ****     while(HAL_SPI_GetState(&hspi1) == HAL_SPI_STATE_BUSY_TX); //Á≠âÂæÖÊï∞ÊçÆÂèëÈÄÅÂÆåÊàê
 218              		.loc 1 65 10
 219 007a 00BF     		nop
 220              	.L4:
 221              		.loc 1 65 11 discriminator 1
 222 007c 0D48     		ldr	r0, .L6+8
 223 007e FFF7FEFF 		bl	HAL_SPI_GetState
 224 0082 0346     		mov	r3, r0
 225              		.loc 1 65 36 discriminator 1
 226 0084 032B     		cmp	r3, #3
 227 0086 F9D0     		beq	.L4
  66:BMI088/bmi088.c ****     pTxData = 0x04;
 228              		.loc 1 66 13
 229 0088 094B     		ldr	r3, .L6+4
 230 008a 0422     		movs	r2, #4
 231 008c 1A70     		strb	r2, [r3]
  67:BMI088/bmi088.c ****     // HAL_SPI_Transmit(&hspi1,&pTxData,1,1000);
  68:BMI088/bmi088.c ****     while(HAL_SPI_GetState(&hspi1) == HAL_SPI_STATE_BUSY_TX); //Á≠âÂæÖÊï∞ÊçÆÂèëÈÄÅÂÆåÊàê
 232              		.loc 1 68 10
 233 008e 00BF     		nop
 234              	.L5:
 235              		.loc 1 68 11 discriminator 1
 236 0090 0848     		ldr	r0, .L6+8
 237 0092 FFF7FEFF 		bl	HAL_SPI_GetState
 238 0096 0346     		mov	r3, r0
 239              		.loc 1 68 36 discriminator 1
 240 0098 032B     		cmp	r3, #3
 241 009a F9D0     		beq	.L5
  69:BMI088/bmi088.c ****     HAL_GPIO_WritePin(GPIOA,GPIO_PIN_4,GPIO_PIN_SET);    //PA4ÁΩÆ1ÔºåÂèñÊ∂àÁâáÈÄâÂä†ÈÄüÂ∫¶ËÆ°
 242              		.loc 1 69 5
 243 009c 0122     		movs	r2, #1
 244 009e 1021     		movs	r1, #16
ARM GAS  D:\msys64\tmp\ccirTI0t.s 			page 6


 245 00a0 0248     		ldr	r0, .L6
 246 00a2 FFF7FEFF 		bl	HAL_GPIO_WritePin
  70:BMI088/bmi088.c **** }
 247              		.loc 1 70 1
 248 00a6 00BF     		nop
 249 00a8 80BD     		pop	{r7, pc}
 250              	.L7:
 251 00aa 00BF     		.align	2
 252              	.L6:
 253 00ac 00000240 		.word	1073872896
 254 00b0 00000000 		.word	pTxData
 255 00b4 00000000 		.word	hspi1
 256              		.cfi_endproc
 257              	.LFE134:
 259              		.section	.text.BMI088_Accel_Read,"ax",%progbits
 260              		.align	1
 261              		.global	BMI088_Accel_Read
 262              		.syntax unified
 263              		.thumb
 264              		.thumb_func
 266              	BMI088_Accel_Read:
 267              	.LFB135:
  71:BMI088/bmi088.c **** 
  72:BMI088/bmi088.c **** void BMI088_Accel_Read()
  73:BMI088/bmi088.c **** {
 268              		.loc 1 73 1
 269              		.cfi_startproc
 270              		@ args = 0, pretend = 0, frame = 8
 271              		@ frame_needed = 1, uses_anonymous_args = 0
 272 0000 80B5     		push	{r7, lr}
 273              	.LCFI2:
 274              		.cfi_def_cfa_offset 8
 275              		.cfi_offset 7, -8
 276              		.cfi_offset 14, -4
 277 0002 82B0     		sub	sp, sp, #8
 278              	.LCFI3:
 279              		.cfi_def_cfa_offset 16
 280 0004 00AF     		add	r7, sp, #0
 281              	.LCFI4:
 282              		.cfi_def_cfa_register 7
  74:BMI088/bmi088.c ****     HAL_GPIO_WritePin(GPIOA, GPIO_PIN_4, GPIO_PIN_RESET);    //PA4ÁΩÆ0ÔºåÁâáÈÄâÂä†ÈÄüÂ∫¶ËÆ°
 283              		.loc 1 74 5
 284 0006 0022     		movs	r2, #0
 285 0008 1021     		movs	r1, #16
 286 000a 4748     		ldr	r0, .L14
 287 000c FFF7FEFF 		bl	HAL_GPIO_WritePin
  75:BMI088/bmi088.c ****     pTxData = (0x12 | 0x80);                                 //#0 ÊòØ1 Ë°®Á§∫ËØª
 288              		.loc 1 75 13
 289 0010 464B     		ldr	r3, .L14+4
 290 0012 9222     		movs	r2, #146
 291 0014 1A70     		strb	r2, [r3]
  76:BMI088/bmi088.c ****     HAL_SPI_Transmit(&hspi1,&pTxData,1,1000);
 292              		.loc 1 76 5
 293 0016 4FF47A73 		mov	r3, #1000
 294 001a 0122     		movs	r2, #1
 295 001c 4349     		ldr	r1, .L14+4
 296 001e 4448     		ldr	r0, .L14+8
ARM GAS  D:\msys64\tmp\ccirTI0t.s 			page 7


 297 0020 FFF7FEFF 		bl	HAL_SPI_Transmit
  77:BMI088/bmi088.c ****     // HAL_SPI_Transmit_DMA(&hspi1,&pTxData,1);
  78:BMI088/bmi088.c ****     while(HAL_SPI_GetState(&hspi1) == HAL_SPI_STATE_BUSY_TX); //Á≠âÂæÖÊï∞ÊçÆÂèëÈÄÅÂÆåÊàê
 298              		.loc 1 78 10
 299 0024 00BF     		nop
 300              	.L9:
 301              		.loc 1 78 11 discriminator 1
 302 0026 4248     		ldr	r0, .L14+8
 303 0028 FFF7FEFF 		bl	HAL_SPI_GetState
 304 002c 0346     		mov	r3, r0
 305              		.loc 1 78 36 discriminator 1
 306 002e 032B     		cmp	r3, #3
 307 0030 F9D0     		beq	.L9
  79:BMI088/bmi088.c ****     HAL_SPI_Receive(&hspi1,&pRxData,1,1000);
 308              		.loc 1 79 5
 309 0032 4FF47A73 		mov	r3, #1000
 310 0036 0122     		movs	r2, #1
 311 0038 3E49     		ldr	r1, .L14+12
 312 003a 3D48     		ldr	r0, .L14+8
 313 003c FFF7FEFF 		bl	HAL_SPI_Receive
  80:BMI088/bmi088.c ****     // HAL_SPI_Receive_DMA(&hspi1,&pRxData,1);
  81:BMI088/bmi088.c ****     while(HAL_SPI_GetState(&hspi1) == HAL_SPI_STATE_BUSY_RX);
 314              		.loc 1 81 10
 315 0040 00BF     		nop
 316              	.L10:
 317              		.loc 1 81 11 discriminator 1
 318 0042 3B48     		ldr	r0, .L14+8
 319 0044 FFF7FEFF 		bl	HAL_SPI_GetState
 320 0048 0346     		mov	r3, r0
 321              		.loc 1 81 36 discriminator 1
 322 004a 042B     		cmp	r3, #4
 323 004c F9D0     		beq	.L10
 324              	.LBB2:
  82:BMI088/bmi088.c ****     for(int i = 0; i < 6; i++)
 325              		.loc 1 82 13
 326 004e 0023     		movs	r3, #0
 327 0050 7B60     		str	r3, [r7, #4]
 328              		.loc 1 82 5
 329 0052 17E0     		b	.L11
 330              	.L13:
  83:BMI088/bmi088.c ****     {
  84:BMI088/bmi088.c ****         HAL_SPI_Receive(&hspi1,&pRxData,1,1000);    //Bit #16-23ÔºåÂØÑÂ≠òÂô®0x12ÁöÑÂÄºÔºåÁÑ∂ÂêéÊòØÂ
 331              		.loc 1 84 9
 332 0054 4FF47A73 		mov	r3, #1000
 333 0058 0122     		movs	r2, #1
 334 005a 3649     		ldr	r1, .L14+12
 335 005c 3448     		ldr	r0, .L14+8
 336 005e FFF7FEFF 		bl	HAL_SPI_Receive
  85:BMI088/bmi088.c ****         // HAL_SPI_Receive_DMA(&hspi1,&pRxData,1);
  86:BMI088/bmi088.c ****         while(HAL_SPI_GetState(&hspi1) == HAL_SPI_STATE_BUSY_RX);
 337              		.loc 1 86 14
 338 0062 00BF     		nop
 339              	.L12:
 340              		.loc 1 86 15 discriminator 1
 341 0064 3248     		ldr	r0, .L14+8
 342 0066 FFF7FEFF 		bl	HAL_SPI_GetState
 343 006a 0346     		mov	r3, r0
ARM GAS  D:\msys64\tmp\ccirTI0t.s 			page 8


 344              		.loc 1 86 40 discriminator 1
 345 006c 042B     		cmp	r3, #4
 346 006e F9D0     		beq	.L12
  87:BMI088/bmi088.c ****         buf[i] = pRxData;
 347              		.loc 1 87 16
 348 0070 304B     		ldr	r3, .L14+12
 349 0072 1978     		ldrb	r1, [r3]	@ zero_extendqisi2
 350 0074 304A     		ldr	r2, .L14+16
 351 0076 7B68     		ldr	r3, [r7, #4]
 352 0078 1344     		add	r3, r3, r2
 353 007a 0A46     		mov	r2, r1
 354 007c 1A70     		strb	r2, [r3]
  82:BMI088/bmi088.c ****     {
 355              		.loc 1 82 28 discriminator 2
 356 007e 7B68     		ldr	r3, [r7, #4]
 357 0080 0133     		adds	r3, r3, #1
 358 0082 7B60     		str	r3, [r7, #4]
 359              	.L11:
  82:BMI088/bmi088.c ****     {
 360              		.loc 1 82 22 discriminator 1
 361 0084 7B68     		ldr	r3, [r7, #4]
 362 0086 052B     		cmp	r3, #5
 363 0088 E4DD     		ble	.L13
 364              	.LBE2:
  88:BMI088/bmi088.c ****     }
  89:BMI088/bmi088.c ****     HAL_GPIO_WritePin(GPIOA,GPIO_PIN_4,GPIO_PIN_SET); //ÂèñÊ∂àÁâáÈÄâÂä†ÈÄüÂ∫¶ËÆ°
 365              		.loc 1 89 5
 366 008a 0122     		movs	r2, #1
 367 008c 1021     		movs	r1, #16
 368 008e 2648     		ldr	r0, .L14
 369 0090 FFF7FEFF 		bl	HAL_GPIO_WritePin
  90:BMI088/bmi088.c ****     accel[0] = (int16_t)((buf[1] << 8) | buf[0]) * BMI088_ACCEL_SEN;
 370              		.loc 1 90 30
 371 0094 284B     		ldr	r3, .L14+16
 372 0096 5B78     		ldrb	r3, [r3, #1]	@ zero_extendqisi2
 373              		.loc 1 90 16
 374 0098 1BB2     		sxth	r3, r3
 375 009a 1B02     		lsls	r3, r3, #8
 376 009c 1AB2     		sxth	r2, r3
 377              		.loc 1 90 45
 378 009e 264B     		ldr	r3, .L14+16
 379 00a0 1B78     		ldrb	r3, [r3]	@ zero_extendqisi2
 380 00a2 1BB2     		sxth	r3, r3
 381              		.loc 1 90 16
 382 00a4 1343     		orrs	r3, r3, r2
 383 00a6 1BB2     		sxth	r3, r3
 384              		.loc 1 90 50
 385 00a8 07EE903A 		vmov	s15, r3	@ int
 386 00ac B8EEE77A 		vcvt.f32.s32	s14, s15
 387 00b0 224B     		ldr	r3, .L14+20
 388 00b2 D3ED007A 		vldr.32	s15, [r3]
 389 00b6 67EE277A 		vmul.f32	s15, s14, s15
 390              		.loc 1 90 14
 391 00ba 214B     		ldr	r3, .L14+24
 392 00bc C3ED007A 		vstr.32	s15, [r3]
  91:BMI088/bmi088.c ****     accel[1] = (int16_t)((buf[3] << 8) | buf[2]) * BMI088_ACCEL_SEN;
 393              		.loc 1 91 30
ARM GAS  D:\msys64\tmp\ccirTI0t.s 			page 9


 394 00c0 1D4B     		ldr	r3, .L14+16
 395 00c2 DB78     		ldrb	r3, [r3, #3]	@ zero_extendqisi2
 396              		.loc 1 91 16
 397 00c4 1BB2     		sxth	r3, r3
 398 00c6 1B02     		lsls	r3, r3, #8
 399 00c8 1AB2     		sxth	r2, r3
 400              		.loc 1 91 45
 401 00ca 1B4B     		ldr	r3, .L14+16
 402 00cc 9B78     		ldrb	r3, [r3, #2]	@ zero_extendqisi2
 403 00ce 1BB2     		sxth	r3, r3
 404              		.loc 1 91 16
 405 00d0 1343     		orrs	r3, r3, r2
 406 00d2 1BB2     		sxth	r3, r3
 407              		.loc 1 91 50
 408 00d4 07EE903A 		vmov	s15, r3	@ int
 409 00d8 B8EEE77A 		vcvt.f32.s32	s14, s15
 410 00dc 174B     		ldr	r3, .L14+20
 411 00de D3ED007A 		vldr.32	s15, [r3]
 412 00e2 67EE277A 		vmul.f32	s15, s14, s15
 413              		.loc 1 91 14
 414 00e6 164B     		ldr	r3, .L14+24
 415 00e8 C3ED017A 		vstr.32	s15, [r3, #4]
  92:BMI088/bmi088.c ****     accel[2] = (int16_t)((buf[5] << 8) | buf[4]) * BMI088_ACCEL_SEN;
 416              		.loc 1 92 30
 417 00ec 124B     		ldr	r3, .L14+16
 418 00ee 5B79     		ldrb	r3, [r3, #5]	@ zero_extendqisi2
 419              		.loc 1 92 16
 420 00f0 1BB2     		sxth	r3, r3
 421 00f2 1B02     		lsls	r3, r3, #8
 422 00f4 1AB2     		sxth	r2, r3
 423              		.loc 1 92 45
 424 00f6 104B     		ldr	r3, .L14+16
 425 00f8 1B79     		ldrb	r3, [r3, #4]	@ zero_extendqisi2
 426 00fa 1BB2     		sxth	r3, r3
 427              		.loc 1 92 16
 428 00fc 1343     		orrs	r3, r3, r2
 429 00fe 1BB2     		sxth	r3, r3
 430              		.loc 1 92 50
 431 0100 07EE903A 		vmov	s15, r3	@ int
 432 0104 B8EEE77A 		vcvt.f32.s32	s14, s15
 433 0108 0C4B     		ldr	r3, .L14+20
 434 010a D3ED007A 		vldr.32	s15, [r3]
 435 010e 67EE277A 		vmul.f32	s15, s14, s15
 436              		.loc 1 92 14
 437 0112 0B4B     		ldr	r3, .L14+24
 438 0114 C3ED027A 		vstr.32	s15, [r3, #8]
  93:BMI088/bmi088.c ****     
  94:BMI088/bmi088.c ****     // BMI088_accel_read_muli_reg(BMI088_TEMP_M, buffer, 2);
  95:BMI088/bmi088.c ****     // bmi088_raw_temp = (int16_t)((buffer[0] << 3) | (buffer[1] >> 5));
  96:BMI088/bmi088.c ****     //     if (bmi088_raw_temp > 1023)
  97:BMI088/bmi088.c ****     //         bmi088_raw_temp -= 2048;
  98:BMI088/bmi088.c ****     //   Temperature  = bmi088_raw_temp * BMI088_TEMP_FACTOR + BMI088_TEMP_OFFSET;
  99:BMI088/bmi088.c **** 
 100:BMI088/bmi088.c ****     BMI088_Temper_read(buf_temp,2);
 439              		.loc 1 100 5
 440 0118 0221     		movs	r1, #2
 441 011a 0A48     		ldr	r0, .L14+28
ARM GAS  D:\msys64\tmp\ccirTI0t.s 			page 10


 442 011c FFF7FEFF 		bl	BMI088_Temper_read
 101:BMI088/bmi088.c **** }
 443              		.loc 1 101 1
 444 0120 00BF     		nop
 445 0122 0837     		adds	r7, r7, #8
 446              	.LCFI5:
 447              		.cfi_def_cfa_offset 8
 448 0124 BD46     		mov	sp, r7
 449              	.LCFI6:
 450              		.cfi_def_cfa_register 13
 451              		@ sp needed
 452 0126 80BD     		pop	{r7, pc}
 453              	.L15:
 454              		.align	2
 455              	.L14:
 456 0128 00000240 		.word	1073872896
 457 012c 00000000 		.word	pTxData
 458 0130 00000000 		.word	hspi1
 459 0134 00000000 		.word	pRxData
 460 0138 00000000 		.word	buf
 461 013c 00000000 		.word	BMI088_ACCEL_SEN
 462 0140 00000000 		.word	accel
 463 0144 00000000 		.word	buf_temp
 464              		.cfi_endproc
 465              	.LFE135:
 467              		.section	.text.BMI088_Gyro_Init,"ax",%progbits
 468              		.align	1
 469              		.global	BMI088_Gyro_Init
 470              		.syntax unified
 471              		.thumb
 472              		.thumb_func
 474              	BMI088_Gyro_Init:
 475              	.LFB136:
 102:BMI088/bmi088.c **** 
 103:BMI088/bmi088.c **** void BMI088_Gyro_Init()
 104:BMI088/bmi088.c **** {
 476              		.loc 1 104 1
 477              		.cfi_startproc
 478              		@ args = 0, pretend = 0, frame = 0
 479              		@ frame_needed = 1, uses_anonymous_args = 0
 480 0000 80B5     		push	{r7, lr}
 481              	.LCFI7:
 482              		.cfi_def_cfa_offset 8
 483              		.cfi_offset 7, -8
 484              		.cfi_offset 14, -4
 485 0002 00AF     		add	r7, sp, #0
 486              	.LCFI8:
 487              		.cfi_def_cfa_register 7
 105:BMI088/bmi088.c ****     HAL_GPIO_WritePin(GPIOB,GPIO_PIN_0,GPIO_PIN_RESET);     //ÁâáÈÄâÈôÄËû∫‰ª™
 488              		.loc 1 105 5
 489 0004 0022     		movs	r2, #0
 490 0006 0121     		movs	r1, #1
 491 0008 1748     		ldr	r0, .L19
 492 000a FFF7FEFF 		bl	HAL_GPIO_WritePin
 106:BMI088/bmi088.c ****     pTxData_gyro = (0x14 & 0x7F);   //ÈôÄËû∫‰ª™Â§ç‰Ωç
 493              		.loc 1 106 18
 494 000e 174B     		ldr	r3, .L19+4
ARM GAS  D:\msys64\tmp\ccirTI0t.s 			page 11


 495 0010 1422     		movs	r2, #20
 496 0012 1A70     		strb	r2, [r3]
 107:BMI088/bmi088.c ****     HAL_SPI_Transmit(&hspi1,&pTxData_gyro,1,1000);
 497              		.loc 1 107 5
 498 0014 4FF47A73 		mov	r3, #1000
 499 0018 0122     		movs	r2, #1
 500 001a 1449     		ldr	r1, .L19+4
 501 001c 1448     		ldr	r0, .L19+8
 502 001e FFF7FEFF 		bl	HAL_SPI_Transmit
 108:BMI088/bmi088.c ****     // HAL_SPI_Transmit_DMA(&hspi1,&pTxData_gyro,1);
 109:BMI088/bmi088.c ****     while(HAL_SPI_GetState(&hspi1) == HAL_SPI_STATE_BUSY_TX);
 503              		.loc 1 109 10
 504 0022 00BF     		nop
 505              	.L17:
 506              		.loc 1 109 11 discriminator 1
 507 0024 1248     		ldr	r0, .L19+8
 508 0026 FFF7FEFF 		bl	HAL_SPI_GetState
 509 002a 0346     		mov	r3, r0
 510              		.loc 1 109 36 discriminator 1
 511 002c 032B     		cmp	r3, #3
 512 002e F9D0     		beq	.L17
 110:BMI088/bmi088.c ****     pTxData_gyro = 0xB6;
 513              		.loc 1 110 18
 514 0030 0E4B     		ldr	r3, .L19+4
 515 0032 B622     		movs	r2, #182
 516 0034 1A70     		strb	r2, [r3]
 111:BMI088/bmi088.c ****     HAL_SPI_Transmit(&hspi1,&pTxData_gyro,1,1000);
 517              		.loc 1 111 5
 518 0036 4FF47A73 		mov	r3, #1000
 519 003a 0122     		movs	r2, #1
 520 003c 0B49     		ldr	r1, .L19+4
 521 003e 0C48     		ldr	r0, .L19+8
 522 0040 FFF7FEFF 		bl	HAL_SPI_Transmit
 112:BMI088/bmi088.c ****     // HAL_SPI_Transmit_DMA(&hspi1,&pTxData_gyro,1);
 113:BMI088/bmi088.c ****     while(HAL_SPI_GetState(&hspi1) == HAL_SPI_STATE_BUSY_TX);
 523              		.loc 1 113 10
 524 0044 00BF     		nop
 525              	.L18:
 526              		.loc 1 113 11 discriminator 1
 527 0046 0A48     		ldr	r0, .L19+8
 528 0048 FFF7FEFF 		bl	HAL_SPI_GetState
 529 004c 0346     		mov	r3, r0
 530              		.loc 1 113 36 discriminator 1
 531 004e 032B     		cmp	r3, #3
 532 0050 F9D0     		beq	.L18
 114:BMI088/bmi088.c ****     // osDelay(30);
 115:BMI088/bmi088.c ****     HAL_Delay(30);
 533              		.loc 1 115 5
 534 0052 1E20     		movs	r0, #30
 535 0054 FFF7FEFF 		bl	HAL_Delay
 116:BMI088/bmi088.c ****     HAL_GPIO_WritePin(GPIOB,GPIO_PIN_0,GPIO_PIN_SET);     //ÂèñÊ∂àÁâáÈÄâÈôÄËû∫‰ª™
 536              		.loc 1 116 5
 537 0058 0122     		movs	r2, #1
 538 005a 0121     		movs	r1, #1
 539 005c 0248     		ldr	r0, .L19
 540 005e FFF7FEFF 		bl	HAL_GPIO_WritePin
 117:BMI088/bmi088.c **** }
ARM GAS  D:\msys64\tmp\ccirTI0t.s 			page 12


 541              		.loc 1 117 1
 542 0062 00BF     		nop
 543 0064 80BD     		pop	{r7, pc}
 544              	.L20:
 545 0066 00BF     		.align	2
 546              	.L19:
 547 0068 00040240 		.word	1073873920
 548 006c 00000000 		.word	pTxData_gyro
 549 0070 00000000 		.word	hspi1
 550              		.cfi_endproc
 551              	.LFE136:
 553              		.section	.text.BMI088_Gyro_Read,"ax",%progbits
 554              		.align	1
 555              		.global	BMI088_Gyro_Read
 556              		.syntax unified
 557              		.thumb
 558              		.thumb_func
 560              	BMI088_Gyro_Read:
 561              	.LFB137:
 118:BMI088/bmi088.c **** 
 119:BMI088/bmi088.c **** void BMI088_Gyro_Read()
 120:BMI088/bmi088.c **** {
 562              		.loc 1 120 1
 563              		.cfi_startproc
 564              		@ args = 0, pretend = 0, frame = 8
 565              		@ frame_needed = 1, uses_anonymous_args = 0
 566 0000 80B5     		push	{r7, lr}
 567              	.LCFI9:
 568              		.cfi_def_cfa_offset 8
 569              		.cfi_offset 7, -8
 570              		.cfi_offset 14, -4
 571 0002 82B0     		sub	sp, sp, #8
 572              	.LCFI10:
 573              		.cfi_def_cfa_offset 16
 574 0004 00AF     		add	r7, sp, #0
 575              	.LCFI11:
 576              		.cfi_def_cfa_register 7
 121:BMI088/bmi088.c ****     HAL_GPIO_WritePin(GPIOB,GPIO_PIN_0,GPIO_PIN_RESET);     //ÁâáÈÄâÈôÄËû∫‰ª™
 577              		.loc 1 121 5
 578 0006 0022     		movs	r2, #0
 579 0008 0121     		movs	r1, #1
 580 000a 3E48     		ldr	r0, .L26
 581 000c FFF7FEFF 		bl	HAL_GPIO_WritePin
 122:BMI088/bmi088.c ****     pTxData_gyro = (0x00 | 0x80);
 582              		.loc 1 122 18
 583 0010 3D4B     		ldr	r3, .L26+4
 584 0012 8022     		movs	r2, #128
 585 0014 1A70     		strb	r2, [r3]
 123:BMI088/bmi088.c ****     HAL_SPI_Transmit(&hspi1,&pTxData_gyro,1,1000);
 586              		.loc 1 123 5
 587 0016 4FF47A73 		mov	r3, #1000
 588 001a 0122     		movs	r2, #1
 589 001c 3A49     		ldr	r1, .L26+4
 590 001e 3B48     		ldr	r0, .L26+8
 591 0020 FFF7FEFF 		bl	HAL_SPI_Transmit
 124:BMI088/bmi088.c ****     // HAL_SPI_Transmit_DMA(&hspi1,&pTxData_gyro,1);
 125:BMI088/bmi088.c ****     while(HAL_SPI_GetState(&hspi1) == HAL_SPI_STATE_BUSY_TX);
ARM GAS  D:\msys64\tmp\ccirTI0t.s 			page 13


 592              		.loc 1 125 10
 593 0024 00BF     		nop
 594              	.L22:
 595              		.loc 1 125 11 discriminator 1
 596 0026 3948     		ldr	r0, .L26+8
 597 0028 FFF7FEFF 		bl	HAL_SPI_GetState
 598 002c 0346     		mov	r3, r0
 599              		.loc 1 125 36 discriminator 1
 600 002e 032B     		cmp	r3, #3
 601 0030 F9D0     		beq	.L22
 602              	.LBB3:
 126:BMI088/bmi088.c ****     for(int i = 0; i < 8; i++)
 603              		.loc 1 126 13
 604 0032 0023     		movs	r3, #0
 605 0034 7B60     		str	r3, [r7, #4]
 606              		.loc 1 126 5
 607 0036 17E0     		b	.L23
 608              	.L25:
 127:BMI088/bmi088.c ****     {
 128:BMI088/bmi088.c ****         HAL_SPI_Receive(&hspi1,&pRxData_gyro,1,1000);
 609              		.loc 1 128 9
 610 0038 4FF47A73 		mov	r3, #1000
 611 003c 0122     		movs	r2, #1
 612 003e 3449     		ldr	r1, .L26+12
 613 0040 3248     		ldr	r0, .L26+8
 614 0042 FFF7FEFF 		bl	HAL_SPI_Receive
 129:BMI088/bmi088.c ****         // HAL_SPI_Receive_DMA(&hspi1,&pRxData_gyro,1);
 130:BMI088/bmi088.c ****         while(HAL_SPI_GetState(&hspi1) == HAL_SPI_STATE_BUSY_RX);
 615              		.loc 1 130 14
 616 0046 00BF     		nop
 617              	.L24:
 618              		.loc 1 130 15 discriminator 1
 619 0048 3048     		ldr	r0, .L26+8
 620 004a FFF7FEFF 		bl	HAL_SPI_GetState
 621 004e 0346     		mov	r3, r0
 622              		.loc 1 130 40 discriminator 1
 623 0050 042B     		cmp	r3, #4
 624 0052 F9D0     		beq	.L24
 131:BMI088/bmi088.c ****         buffer[i] = pRxData_gyro;
 625              		.loc 1 131 19
 626 0054 2E4B     		ldr	r3, .L26+12
 627 0056 1978     		ldrb	r1, [r3]	@ zero_extendqisi2
 628 0058 2E4A     		ldr	r2, .L26+16
 629 005a 7B68     		ldr	r3, [r7, #4]
 630 005c 1344     		add	r3, r3, r2
 631 005e 0A46     		mov	r2, r1
 632 0060 1A70     		strb	r2, [r3]
 126:BMI088/bmi088.c ****     {
 633              		.loc 1 126 28 discriminator 2
 634 0062 7B68     		ldr	r3, [r7, #4]
 635 0064 0133     		adds	r3, r3, #1
 636 0066 7B60     		str	r3, [r7, #4]
 637              	.L23:
 126:BMI088/bmi088.c ****     {
 638              		.loc 1 126 22 discriminator 1
 639 0068 7B68     		ldr	r3, [r7, #4]
 640 006a 072B     		cmp	r3, #7
ARM GAS  D:\msys64\tmp\ccirTI0t.s 			page 14


 641 006c E4DD     		ble	.L25
 642              	.LBE3:
 132:BMI088/bmi088.c ****     }
 133:BMI088/bmi088.c ****     HAL_GPIO_WritePin(GPIOB,GPIO_PIN_0,GPIO_PIN_SET);     //ÂèñÊ∂àÁâáÈÄâÈôÄËû∫‰ª™
 643              		.loc 1 133 5
 644 006e 0122     		movs	r2, #1
 645 0070 0121     		movs	r1, #1
 646 0072 2448     		ldr	r0, .L26
 647 0074 FFF7FEFF 		bl	HAL_GPIO_WritePin
 134:BMI088/bmi088.c ****     // if(buf[0] == 0x0F)
 135:BMI088/bmi088.c ****     // {
 136:BMI088/bmi088.c ****         gyro[0] = ((int16_t)((buffer[3] << 8) | buffer[2])) * BMI088_GYRO_SEN; 
 648              		.loc 1 136 37
 649 0078 264B     		ldr	r3, .L26+16
 650 007a DB78     		ldrb	r3, [r3, #3]	@ zero_extendqisi2
 651              		.loc 1 136 20
 652 007c 1BB2     		sxth	r3, r3
 653 007e 1B02     		lsls	r3, r3, #8
 654 0080 1AB2     		sxth	r2, r3
 655              		.loc 1 136 55
 656 0082 244B     		ldr	r3, .L26+16
 657 0084 9B78     		ldrb	r3, [r3, #2]	@ zero_extendqisi2
 658 0086 1BB2     		sxth	r3, r3
 659              		.loc 1 136 20
 660 0088 1343     		orrs	r3, r3, r2
 661 008a 1BB2     		sxth	r3, r3
 662              		.loc 1 136 61
 663 008c 07EE903A 		vmov	s15, r3	@ int
 664 0090 B8EEE77A 		vcvt.f32.s32	s14, s15
 665 0094 204B     		ldr	r3, .L26+20
 666 0096 D3ED007A 		vldr.32	s15, [r3]
 667 009a 67EE277A 		vmul.f32	s15, s14, s15
 668              		.loc 1 136 17
 669 009e 1F4B     		ldr	r3, .L26+24
 670 00a0 C3ED007A 		vstr.32	s15, [r3]
 137:BMI088/bmi088.c ****         gyro[1] = ((int16_t)((buffer[5] << 8) | buffer[4])) * BMI088_GYRO_SEN;
 671              		.loc 1 137 37
 672 00a4 1B4B     		ldr	r3, .L26+16
 673 00a6 5B79     		ldrb	r3, [r3, #5]	@ zero_extendqisi2
 674              		.loc 1 137 20
 675 00a8 1BB2     		sxth	r3, r3
 676 00aa 1B02     		lsls	r3, r3, #8
 677 00ac 1AB2     		sxth	r2, r3
 678              		.loc 1 137 55
 679 00ae 194B     		ldr	r3, .L26+16
 680 00b0 1B79     		ldrb	r3, [r3, #4]	@ zero_extendqisi2
 681 00b2 1BB2     		sxth	r3, r3
 682              		.loc 1 137 20
 683 00b4 1343     		orrs	r3, r3, r2
 684 00b6 1BB2     		sxth	r3, r3
 685              		.loc 1 137 61
 686 00b8 07EE903A 		vmov	s15, r3	@ int
 687 00bc B8EEE77A 		vcvt.f32.s32	s14, s15
 688 00c0 154B     		ldr	r3, .L26+20
 689 00c2 D3ED007A 		vldr.32	s15, [r3]
 690 00c6 67EE277A 		vmul.f32	s15, s14, s15
 691              		.loc 1 137 17
ARM GAS  D:\msys64\tmp\ccirTI0t.s 			page 15


 692 00ca 144B     		ldr	r3, .L26+24
 693 00cc C3ED017A 		vstr.32	s15, [r3, #4]
 138:BMI088/bmi088.c ****         gyro[2] = ((int16_t)((buffer[7] << 8) | buffer[6])) * BMI088_GYRO_SEN;
 694              		.loc 1 138 37
 695 00d0 104B     		ldr	r3, .L26+16
 696 00d2 DB79     		ldrb	r3, [r3, #7]	@ zero_extendqisi2
 697              		.loc 1 138 20
 698 00d4 1BB2     		sxth	r3, r3
 699 00d6 1B02     		lsls	r3, r3, #8
 700 00d8 1AB2     		sxth	r2, r3
 701              		.loc 1 138 55
 702 00da 0E4B     		ldr	r3, .L26+16
 703 00dc 9B79     		ldrb	r3, [r3, #6]	@ zero_extendqisi2
 704 00de 1BB2     		sxth	r3, r3
 705              		.loc 1 138 20
 706 00e0 1343     		orrs	r3, r3, r2
 707 00e2 1BB2     		sxth	r3, r3
 708              		.loc 1 138 61
 709 00e4 07EE903A 		vmov	s15, r3	@ int
 710 00e8 B8EEE77A 		vcvt.f32.s32	s14, s15
 711 00ec 0A4B     		ldr	r3, .L26+20
 712 00ee D3ED007A 		vldr.32	s15, [r3]
 713 00f2 67EE277A 		vmul.f32	s15, s14, s15
 714              		.loc 1 138 17
 715 00f6 094B     		ldr	r3, .L26+24
 716 00f8 C3ED027A 		vstr.32	s15, [r3, #8]
 139:BMI088/bmi088.c ****     // }
 140:BMI088/bmi088.c ****     
 141:BMI088/bmi088.c **** }
 717              		.loc 1 141 1
 718 00fc 00BF     		nop
 719 00fe 0837     		adds	r7, r7, #8
 720              	.LCFI12:
 721              		.cfi_def_cfa_offset 8
 722 0100 BD46     		mov	sp, r7
 723              	.LCFI13:
 724              		.cfi_def_cfa_register 13
 725              		@ sp needed
 726 0102 80BD     		pop	{r7, pc}
 727              	.L27:
 728              		.align	2
 729              	.L26:
 730 0104 00040240 		.word	1073873920
 731 0108 00000000 		.word	pTxData_gyro
 732 010c 00000000 		.word	hspi1
 733 0110 00000000 		.word	pRxData_gyro
 734 0114 00000000 		.word	buffer
 735 0118 00000000 		.word	BMI088_GYRO_SEN
 736 011c 00000000 		.word	gyro
 737              		.cfi_endproc
 738              	.LFE137:
 740              		.section	.text.BMI088_Temper_read,"ax",%progbits
 741              		.align	1
 742              		.global	BMI088_Temper_read
 743              		.syntax unified
 744              		.thumb
 745              		.thumb_func
ARM GAS  D:\msys64\tmp\ccirTI0t.s 			page 16


 747              	BMI088_Temper_read:
 748              	.LFB138:
 142:BMI088/bmi088.c **** 
 143:BMI088/bmi088.c **** //‰∏çË¶ÅÂÜôÊàêËøôÊ†∑ÔºåÂ§™Ê∑∑‰π±‰∫ÜÔºå‰∏∫‰ªÄ‰πàË¶Å‰º†ÂÖ•‰∏Ä‰∏™ÁºìÂÜ≤Âå∫ÂíåÈïøÂ∫¶ÔºüËØªÊ∏©Â∫¶‰∏çÊòØÂ
 144:BMI088/bmi088.c **** void BMI088_Temper_read(uint8_t tempbuf[], uint8_t len)
 145:BMI088/bmi088.c **** {   
 749              		.loc 1 145 1
 750              		.cfi_startproc
 751              		@ args = 0, pretend = 0, frame = 16
 752              		@ frame_needed = 1, uses_anonymous_args = 0
 753 0000 90B5     		push	{r4, r7, lr}
 754              	.LCFI14:
 755              		.cfi_def_cfa_offset 12
 756              		.cfi_offset 4, -12
 757              		.cfi_offset 7, -8
 758              		.cfi_offset 14, -4
 759 0002 85B0     		sub	sp, sp, #20
 760              	.LCFI15:
 761              		.cfi_def_cfa_offset 32
 762 0004 00AF     		add	r7, sp, #0
 763              	.LCFI16:
 764              		.cfi_def_cfa_register 7
 765 0006 7860     		str	r0, [r7, #4]
 766 0008 0B46     		mov	r3, r1
 767 000a FB70     		strb	r3, [r7, #3]
 146:BMI088/bmi088.c ****     uint8_t tempdata[2],index=0;
 768              		.loc 1 146 25
 769 000c 0023     		movs	r3, #0
 770 000e FB73     		strb	r3, [r7, #15]
 147:BMI088/bmi088.c ****     HAL_GPIO_WritePin(GPIOA,GPIO_PIN_4,GPIO_PIN_RESET);    //PA4ÁΩÆÈõ∂ÔºåÁâáÈÄâÂä†ÈÄüÂ∫¶ËÆ°
 771              		.loc 1 147 5
 772 0010 0022     		movs	r2, #0
 773 0012 1021     		movs	r1, #16
 774 0014 3248     		ldr	r0, .L34
 775 0016 FFF7FEFF 		bl	HAL_GPIO_WritePin
 148:BMI088/bmi088.c ****     pTxData_Temperature = (0x22 | 0x80); //ËØªÊ∏©Â∫¶ÂØÑÂ≠òÂô®
 776              		.loc 1 148 25
 777 001a 324B     		ldr	r3, .L34+4
 778 001c A222     		movs	r2, #162
 779 001e 1A70     		strb	r2, [r3]
 149:BMI088/bmi088.c ****     HAL_SPI_Transmit(&hspi1,&pTxData_Temperature,1,1000);
 780              		.loc 1 149 5
 781 0020 4FF47A73 		mov	r3, #1000
 782 0024 0122     		movs	r2, #1
 783 0026 2F49     		ldr	r1, .L34+4
 784 0028 2F48     		ldr	r0, .L34+8
 785 002a FFF7FEFF 		bl	HAL_SPI_Transmit
 150:BMI088/bmi088.c ****     HAL_SPI_Receive(&hspi1,&pRxData,1,1000);
 786              		.loc 1 150 5
 787 002e 4FF47A73 		mov	r3, #1000
 788 0032 0122     		movs	r2, #1
 789 0034 2D49     		ldr	r1, .L34+12
 790 0036 2C48     		ldr	r0, .L34+8
 791 0038 FFF7FEFF 		bl	HAL_SPI_Receive
 151:BMI088/bmi088.c ****     // for(int i = 0; i < 2; i++)
 152:BMI088/bmi088.c ****     // {
 153:BMI088/bmi088.c ****     //     HAL_SPI_Receive(&hspi1,&pRxData_Temperature,1,1000);
ARM GAS  D:\msys64\tmp\ccirTI0t.s 			page 17


 154:BMI088/bmi088.c ****     //     buf[i] = pRxData_Temperature;
 155:BMI088/bmi088.c ****     //     // buf[i] = BMI088_read_write_byte(0x55);
 156:BMI088/bmi088.c ****     // }
 157:BMI088/bmi088.c **** 
 158:BMI088/bmi088.c ****     // while(len != 0)
 159:BMI088/bmi088.c ****     // {
 160:BMI088/bmi088.c ****     //     *tempbuf = BMI088_read_write_byte(0x55);
 161:BMI088/bmi088.c ****     //     tempbuf++;
 162:BMI088/bmi088.c ****     //     len--;
 163:BMI088/bmi088.c ****     // }
 164:BMI088/bmi088.c **** 
 165:BMI088/bmi088.c ****     while(len != 0)
 792              		.loc 1 165 10
 793 003c 10E0     		b	.L29
 794              	.L30:
 166:BMI088/bmi088.c ****     {
 167:BMI088/bmi088.c ****         tempdata[index] = BMI088_read_write_byte(0x55);
 795              		.loc 1 167 17
 796 003e FC7B     		ldrb	r4, [r7, #15]	@ zero_extendqisi2
 797              		.loc 1 167 27
 798 0040 5520     		movs	r0, #85
 799 0042 FFF7FEFF 		bl	BMI088_read_write_byte
 800 0046 0346     		mov	r3, r0
 801 0048 1A46     		mov	r2, r3
 802              		.loc 1 167 25 discriminator 1
 803 004a 04F11003 		add	r3, r4, #16
 804 004e 3B44     		add	r3, r3, r7
 805 0050 03F8042C 		strb	r2, [r3, #-4]
 168:BMI088/bmi088.c ****         index++;
 806              		.loc 1 168 14
 807 0054 FB7B     		ldrb	r3, [r7, #15]	@ zero_extendqisi2
 808 0056 0133     		adds	r3, r3, #1
 809 0058 FB73     		strb	r3, [r7, #15]
 169:BMI088/bmi088.c ****         len--;
 810              		.loc 1 169 12
 811 005a FB78     		ldrb	r3, [r7, #3]	@ zero_extendqisi2
 812 005c 013B     		subs	r3, r3, #1
 813 005e FB70     		strb	r3, [r7, #3]
 814              	.L29:
 165:BMI088/bmi088.c ****     {
 815              		.loc 1 165 15
 816 0060 FB78     		ldrb	r3, [r7, #3]	@ zero_extendqisi2
 817 0062 002B     		cmp	r3, #0
 818 0064 EBD1     		bne	.L30
 170:BMI088/bmi088.c ****     }
 171:BMI088/bmi088.c **** 
 172:BMI088/bmi088.c ****     HAL_GPIO_WritePin(GPIOA,GPIO_PIN_4,GPIO_PIN_SET);    //PA4ÁΩÆ1ÔºåÂèñÊ∂àÁâáÈÄâÂä†ÈÄüÂ∫¶ËÆ°
 819              		.loc 1 172 5
 820 0066 0122     		movs	r2, #1
 821 0068 1021     		movs	r1, #16
 822 006a 1D48     		ldr	r0, .L34
 823 006c FFF7FEFF 		bl	HAL_GPIO_WritePin
 173:BMI088/bmi088.c ****     temp = (int16_t)((tempdata[0] << 3) | (tempdata[1] >> 5));
 824              		.loc 1 173 31
 825 0070 3B7B     		ldrb	r3, [r7, #12]	@ zero_extendqisi2
 826              		.loc 1 173 12
 827 0072 1BB2     		sxth	r3, r3
ARM GAS  D:\msys64\tmp\ccirTI0t.s 			page 18


 828 0074 DB00     		lsls	r3, r3, #3
 829 0076 1AB2     		sxth	r2, r3
 830              		.loc 1 173 52
 831 0078 7B7B     		ldrb	r3, [r7, #13]	@ zero_extendqisi2
 832              		.loc 1 173 12
 833 007a 5B09     		lsrs	r3, r3, #5
 834 007c DBB2     		uxtb	r3, r3
 835 007e 1BB2     		sxth	r3, r3
 836 0080 1343     		orrs	r3, r3, r2
 837 0082 1BB2     		sxth	r3, r3
 838              		.loc 1 173 10
 839 0084 07EE903A 		vmov	s15, r3	@ int
 840 0088 F8EEE77A 		vcvt.f32.s32	s15, s15
 841 008c 184B     		ldr	r3, .L34+16
 842 008e C3ED007A 		vstr.32	s15, [r3]
 174:BMI088/bmi088.c ****     if(temp > 1023)
 843              		.loc 1 174 13
 844 0092 174B     		ldr	r3, .L34+16
 845 0094 D3ED007A 		vldr.32	s15, [r3]
 846              		.loc 1 174 7
 847 0098 9FED167A 		vldr.32	s14, .L34+20
 848 009c F4EEC77A 		vcmpe.f32	s15, s14
 849 00a0 F1EE10FA 		vmrs	APSR_nzcv, FPSCR
 850 00a4 09DD     		ble	.L31
 175:BMI088/bmi088.c ****     {
 176:BMI088/bmi088.c ****         temp -= 2048;
 851              		.loc 1 176 14
 852 00a6 124B     		ldr	r3, .L34+16
 853 00a8 D3ED007A 		vldr.32	s15, [r3]
 854 00ac 9FED127A 		vldr.32	s14, .L34+24
 855 00b0 77EEC77A 		vsub.f32	s15, s15, s14
 856 00b4 0E4B     		ldr	r3, .L34+16
 857 00b6 C3ED007A 		vstr.32	s15, [r3]
 858              	.L31:
 177:BMI088/bmi088.c ****     }
 178:BMI088/bmi088.c ****     // Temperature = temp * 0.125f / buf[1] + 23.0f;
 179:BMI088/bmi088.c ****     Temperature = temp * BMI088_TEMP_FACTOR + BMI088_TEMP_OFFSET;
 859              		.loc 1 179 24
 860 00ba 0D4B     		ldr	r3, .L34+16
 861 00bc D3ED007A 		vldr.32	s15, [r3]
 862 00c0 B4EE007A 		vmov.f32	s14, #1.25e-1
 863 00c4 67EE877A 		vmul.f32	s15, s15, s14
 864              		.loc 1 179 45
 865 00c8 B3EE077A 		vmov.f32	s14, #2.3e+1
 866 00cc 77EE877A 		vadd.f32	s15, s15, s14
 867              		.loc 1 179 17
 868 00d0 0A4B     		ldr	r3, .L34+28
 869 00d2 C3ED007A 		vstr.32	s15, [r3]
 180:BMI088/bmi088.c ****     
 181:BMI088/bmi088.c **** }
 870              		.loc 1 181 1
 871 00d6 00BF     		nop
 872 00d8 1437     		adds	r7, r7, #20
 873              	.LCFI17:
 874              		.cfi_def_cfa_offset 12
 875 00da BD46     		mov	sp, r7
 876              	.LCFI18:
ARM GAS  D:\msys64\tmp\ccirTI0t.s 			page 19


 877              		.cfi_def_cfa_register 13
 878              		@ sp needed
 879 00dc 90BD     		pop	{r4, r7, pc}
 880              	.L35:
 881 00de 00BF     		.align	2
 882              	.L34:
 883 00e0 00000240 		.word	1073872896
 884 00e4 00000000 		.word	pTxData_Temperature
 885 00e8 00000000 		.word	hspi1
 886 00ec 00000000 		.word	pRxData
 887 00f0 00000000 		.word	temp
 888 00f4 00C07F44 		.word	1149222912
 889 00f8 00000045 		.word	1157627904
 890 00fc 00000000 		.word	Temperature
 891              		.cfi_endproc
 892              	.LFE138:
 894              		.section	.text.BMI088_read_write_byte,"ax",%progbits
 895              		.align	1
 896              		.global	BMI088_read_write_byte
 897              		.syntax unified
 898              		.thumb
 899              		.thumb_func
 901              	BMI088_read_write_byte:
 902              	.LFB139:
 182:BMI088/bmi088.c **** 
 183:BMI088/bmi088.c **** uint8_t BMI088_read_write_byte(uint8_t txdata)
 184:BMI088/bmi088.c **** {
 903              		.loc 1 184 1
 904              		.cfi_startproc
 905              		@ args = 0, pretend = 0, frame = 16
 906              		@ frame_needed = 1, uses_anonymous_args = 0
 907 0000 80B5     		push	{r7, lr}
 908              	.LCFI19:
 909              		.cfi_def_cfa_offset 8
 910              		.cfi_offset 7, -8
 911              		.cfi_offset 14, -4
 912 0002 86B0     		sub	sp, sp, #24
 913              	.LCFI20:
 914              		.cfi_def_cfa_offset 32
 915 0004 02AF     		add	r7, sp, #8
 916              	.LCFI21:
 917              		.cfi_def_cfa 7, 24
 918 0006 0346     		mov	r3, r0
 919 0008 FB71     		strb	r3, [r7, #7]
 185:BMI088/bmi088.c ****     uint8_t rx_data;
 186:BMI088/bmi088.c ****     HAL_SPI_TransmitReceive(&hspi1, &txdata, &rx_data, 1, 1000);
 920              		.loc 1 186 5
 921 000a 07F10F02 		add	r2, r7, #15
 922 000e F91D     		adds	r1, r7, #7
 923 0010 4FF47A73 		mov	r3, #1000
 924 0014 0093     		str	r3, [sp]
 925 0016 0123     		movs	r3, #1
 926 0018 0348     		ldr	r0, .L38
 927 001a FFF7FEFF 		bl	HAL_SPI_TransmitReceive
 187:BMI088/bmi088.c ****     return rx_data;
 928              		.loc 1 187 12
 929 001e FB7B     		ldrb	r3, [r7, #15]	@ zero_extendqisi2
ARM GAS  D:\msys64\tmp\ccirTI0t.s 			page 20


 188:BMI088/bmi088.c **** }
 930              		.loc 1 188 1
 931 0020 1846     		mov	r0, r3
 932 0022 1037     		adds	r7, r7, #16
 933              	.LCFI22:
 934              		.cfi_def_cfa_offset 8
 935 0024 BD46     		mov	sp, r7
 936              	.LCFI23:
 937              		.cfi_def_cfa_register 13
 938              		@ sp needed
 939 0026 80BD     		pop	{r7, pc}
 940              	.L39:
 941              		.align	2
 942              	.L38:
 943 0028 00000000 		.word	hspi1
 944              		.cfi_endproc
 945              	.LFE139:
 947              		.section	.text.BMI088_read_muli_reg,"ax",%progbits
 948              		.align	1
 949              		.syntax unified
 950              		.thumb
 951              		.thumb_func
 953              	BMI088_read_muli_reg:
 954              	.LFB140:
 189:BMI088/bmi088.c **** 
 190:BMI088/bmi088.c **** static void BMI088_read_muli_reg(uint8_t reg, uint8_t *buf, uint8_t len)
 191:BMI088/bmi088.c **** {
 955              		.loc 1 191 1
 956              		.cfi_startproc
 957              		@ args = 0, pretend = 0, frame = 8
 958              		@ frame_needed = 1, uses_anonymous_args = 0
 959 0000 80B5     		push	{r7, lr}
 960              	.LCFI24:
 961              		.cfi_def_cfa_offset 8
 962              		.cfi_offset 7, -8
 963              		.cfi_offset 14, -4
 964 0002 82B0     		sub	sp, sp, #8
 965              	.LCFI25:
 966              		.cfi_def_cfa_offset 16
 967 0004 00AF     		add	r7, sp, #0
 968              	.LCFI26:
 969              		.cfi_def_cfa_register 7
 970 0006 0346     		mov	r3, r0
 971 0008 3960     		str	r1, [r7]
 972 000a FB71     		strb	r3, [r7, #7]
 973 000c 1346     		mov	r3, r2
 974 000e BB71     		strb	r3, [r7, #6]
 192:BMI088/bmi088.c ****     BMI088_read_write_byte(reg | 0x80);
 975              		.loc 1 192 5
 976 0010 FB79     		ldrb	r3, [r7, #7]
 977 0012 63F07F03 		orn	r3, r3, #127
 978 0016 DBB2     		uxtb	r3, r3
 979 0018 1846     		mov	r0, r3
 980 001a FFF7FEFF 		bl	BMI088_read_write_byte
 193:BMI088/bmi088.c **** 
 194:BMI088/bmi088.c ****     while (len != 0)
 981              		.loc 1 194 11
ARM GAS  D:\msys64\tmp\ccirTI0t.s 			page 21


 982 001e 0CE0     		b	.L41
 983              	.L42:
 195:BMI088/bmi088.c ****     {
 196:BMI088/bmi088.c ****         *buf = BMI088_read_write_byte(0x55);
 984              		.loc 1 196 16
 985 0020 5520     		movs	r0, #85
 986 0022 FFF7FEFF 		bl	BMI088_read_write_byte
 987 0026 0346     		mov	r3, r0
 988 0028 1A46     		mov	r2, r3
 989              		.loc 1 196 14 discriminator 1
 990 002a 3B68     		ldr	r3, [r7]
 991 002c 1A70     		strb	r2, [r3]
 197:BMI088/bmi088.c ****         buf++;
 992              		.loc 1 197 12
 993 002e 3B68     		ldr	r3, [r7]
 994 0030 0133     		adds	r3, r3, #1
 995 0032 3B60     		str	r3, [r7]
 198:BMI088/bmi088.c ****         len--;
 996              		.loc 1 198 12
 997 0034 BB79     		ldrb	r3, [r7, #6]	@ zero_extendqisi2
 998 0036 013B     		subs	r3, r3, #1
 999 0038 BB71     		strb	r3, [r7, #6]
 1000              	.L41:
 194:BMI088/bmi088.c ****     {
 1001              		.loc 1 194 16
 1002 003a BB79     		ldrb	r3, [r7, #6]	@ zero_extendqisi2
 1003 003c 002B     		cmp	r3, #0
 1004 003e EFD1     		bne	.L42
 199:BMI088/bmi088.c ****     }
 200:BMI088/bmi088.c **** }
 1005              		.loc 1 200 1
 1006 0040 00BF     		nop
 1007 0042 00BF     		nop
 1008 0044 0837     		adds	r7, r7, #8
 1009              	.LCFI27:
 1010              		.cfi_def_cfa_offset 8
 1011 0046 BD46     		mov	sp, r7
 1012              	.LCFI28:
 1013              		.cfi_def_cfa_register 13
 1014              		@ sp needed
 1015 0048 80BD     		pop	{r7, pc}
 1016              		.cfi_endproc
 1017              	.LFE140:
 1019              		.text
 1020              	.Letext0:
 1021              		.file 2 "D:/msys64/mingw64/arm-none-eabi/include/machine/_default_types.h"
 1022              		.file 3 "D:/msys64/mingw64/arm-none-eabi/include/sys/_stdint.h"
 1023              		.file 4 "Drivers/CMSIS/Device/ST/STM32F4xx/Include/stm32f407xx.h"
 1024              		.file 5 "Drivers/STM32F4xx_HAL_Driver/Inc/stm32f4xx_hal_def.h"
 1025              		.file 6 "Drivers/STM32F4xx_HAL_Driver/Inc/stm32f4xx_hal_gpio.h"
 1026              		.file 7 "Drivers/STM32F4xx_HAL_Driver/Inc/stm32f4xx_hal_dma.h"
 1027              		.file 8 "Drivers/STM32F4xx_HAL_Driver/Inc/stm32f4xx_hal_spi.h"
 1028              		.file 9 "Drivers/STM32F4xx_HAL_Driver/Inc/stm32f4xx_hal.h"
ARM GAS  D:\msys64\tmp\ccirTI0t.s 			page 22


DEFINED SYMBOLS
                            *ABS*:00000000 bmi088.c
D:\msys64\tmp\ccirTI0t.s:25     .data.BMI088_ACCEL_SEN:00000000 BMI088_ACCEL_SEN
D:\msys64\tmp\ccirTI0t.s:22     .data.BMI088_ACCEL_SEN:00000000 $d
D:\msys64\tmp\ccirTI0t.s:32     .data.BMI088_GYRO_SEN:00000000 BMI088_GYRO_SEN
D:\msys64\tmp\ccirTI0t.s:29     .data.BMI088_GYRO_SEN:00000000 $d
D:\msys64\tmp\ccirTI0t.s:39     .bss.gyro:00000000 gyro
D:\msys64\tmp\ccirTI0t.s:36     .bss.gyro:00000000 $d
D:\msys64\tmp\ccirTI0t.s:46     .bss.accel:00000000 accel
D:\msys64\tmp\ccirTI0t.s:43     .bss.accel:00000000 $d
D:\msys64\tmp\ccirTI0t.s:53     .bss.Temperature:00000000 Temperature
D:\msys64\tmp\ccirTI0t.s:50     .bss.Temperature:00000000 $d
D:\msys64\tmp\ccirTI0t.s:60     .bss.temp:00000000 temp
D:\msys64\tmp\ccirTI0t.s:57     .bss.temp:00000000 $d
D:\msys64\tmp\ccirTI0t.s:66     .bss.i:00000000 i
D:\msys64\tmp\ccirTI0t.s:67     .bss.i:00000000 $d
D:\msys64\tmp\ccirTI0t.s:73     .bss.buf:00000000 buf
D:\msys64\tmp\ccirTI0t.s:70     .bss.buf:00000000 $d
D:\msys64\tmp\ccirTI0t.s:80     .bss.buffer:00000000 buffer
D:\msys64\tmp\ccirTI0t.s:77     .bss.buffer:00000000 $d
D:\msys64\tmp\ccirTI0t.s:86     .bss.pTxData:00000000 pTxData
D:\msys64\tmp\ccirTI0t.s:87     .bss.pTxData:00000000 $d
D:\msys64\tmp\ccirTI0t.s:92     .bss.pRxData:00000000 pRxData
D:\msys64\tmp\ccirTI0t.s:93     .bss.pRxData:00000000 $d
D:\msys64\tmp\ccirTI0t.s:98     .bss.pTxData_gyro:00000000 pTxData_gyro
D:\msys64\tmp\ccirTI0t.s:99     .bss.pTxData_gyro:00000000 $d
D:\msys64\tmp\ccirTI0t.s:104    .bss.pRxData_gyro:00000000 pRxData_gyro
D:\msys64\tmp\ccirTI0t.s:105    .bss.pRxData_gyro:00000000 $d
D:\msys64\tmp\ccirTI0t.s:110    .bss.pTxData_Temperature:00000000 pTxData_Temperature
D:\msys64\tmp\ccirTI0t.s:111    .bss.pTxData_Temperature:00000000 $d
D:\msys64\tmp\ccirTI0t.s:116    .bss.pRxData_Temperature:00000000 pRxData_Temperature
D:\msys64\tmp\ccirTI0t.s:117    .bss.pRxData_Temperature:00000000 $d
D:\msys64\tmp\ccirTI0t.s:123    .bss.bmi088_raw_temp:00000000 bmi088_raw_temp
D:\msys64\tmp\ccirTI0t.s:120    .bss.bmi088_raw_temp:00000000 $d
D:\msys64\tmp\ccirTI0t.s:130    .bss.buf_temp:00000000 buf_temp
D:\msys64\tmp\ccirTI0t.s:127    .bss.buf_temp:00000000 $d
D:\msys64\tmp\ccirTI0t.s:133    .text.BMI088_Accel_Init:00000000 $t
D:\msys64\tmp\ccirTI0t.s:139    .text.BMI088_Accel_Init:00000000 BMI088_Accel_Init
D:\msys64\tmp\ccirTI0t.s:253    .text.BMI088_Accel_Init:000000ac $d
D:\msys64\tmp\ccirTI0t.s:260    .text.BMI088_Accel_Read:00000000 $t
D:\msys64\tmp\ccirTI0t.s:266    .text.BMI088_Accel_Read:00000000 BMI088_Accel_Read
D:\msys64\tmp\ccirTI0t.s:747    .text.BMI088_Temper_read:00000000 BMI088_Temper_read
D:\msys64\tmp\ccirTI0t.s:456    .text.BMI088_Accel_Read:00000128 $d
D:\msys64\tmp\ccirTI0t.s:468    .text.BMI088_Gyro_Init:00000000 $t
D:\msys64\tmp\ccirTI0t.s:474    .text.BMI088_Gyro_Init:00000000 BMI088_Gyro_Init
D:\msys64\tmp\ccirTI0t.s:547    .text.BMI088_Gyro_Init:00000068 $d
D:\msys64\tmp\ccirTI0t.s:554    .text.BMI088_Gyro_Read:00000000 $t
D:\msys64\tmp\ccirTI0t.s:560    .text.BMI088_Gyro_Read:00000000 BMI088_Gyro_Read
D:\msys64\tmp\ccirTI0t.s:730    .text.BMI088_Gyro_Read:00000104 $d
D:\msys64\tmp\ccirTI0t.s:741    .text.BMI088_Temper_read:00000000 $t
D:\msys64\tmp\ccirTI0t.s:901    .text.BMI088_read_write_byte:00000000 BMI088_read_write_byte
D:\msys64\tmp\ccirTI0t.s:883    .text.BMI088_Temper_read:000000e0 $d
D:\msys64\tmp\ccirTI0t.s:895    .text.BMI088_read_write_byte:00000000 $t
D:\msys64\tmp\ccirTI0t.s:943    .text.BMI088_read_write_byte:00000028 $d
D:\msys64\tmp\ccirTI0t.s:948    .text.BMI088_read_muli_reg:00000000 $t
D:\msys64\tmp\ccirTI0t.s:953    .text.BMI088_read_muli_reg:00000000 BMI088_read_muli_reg

ARM GAS  D:\msys64\tmp\ccirTI0t.s 			page 23


UNDEFINED SYMBOLS
HAL_GPIO_WritePin
HAL_SPI_Transmit
HAL_SPI_GetState
hspi1
HAL_SPI_Receive
HAL_Delay
HAL_SPI_TransmitReceive
