ARM GAS  C:\Users\AURORA~1\AppData\Local\Temp\ccbhOnh1.s 			page 1


   1              		.cpu cortex-m4
   2              		.arch armv7e-m
   3              		.fpu fpv4-sp-d16
   4              		.eabi_attribute 27, 1
   5              		.eabi_attribute 28, 1
   6              		.eabi_attribute 20, 1
   7              		.eabi_attribute 21, 1
   8              		.eabi_attribute 23, 3
   9              		.eabi_attribute 24, 1
  10              		.eabi_attribute 25, 1
  11              		.eabi_attribute 26, 1
  12              		.eabi_attribute 30, 1
  13              		.eabi_attribute 34, 1
  14              		.eabi_attribute 18, 4
  15              		.file	"djimotor.c"
  16              		.text
  17              	.Ltext0:
  18              		.cfi_sections	.debug_frame
  19              		.file 1 "Modules/DJImotor/djimotor.c"
  20              		.section	.text.AngleSumCalc,"ax",%progbits
  21              		.align	1
  22              		.global	AngleSumCalc
  23              		.syntax unified
  24              		.thumb
  25              		.thumb_func
  27              	AngleSumCalc:
  28              	.LVL0:
  29              	.LFB134:
   1:Modules/DJImotor/djimotor.c **** /*
   2:Modules/DJImotor/djimotor.c ****  * djimotor.c
   3:Modules/DJImotor/djimotor.c ****  *
   4:Modules/DJImotor/djimotor.c ****  *  Created on: Jul 14, 2024
   5:Modules/DJImotor/djimotor.c ****  *      Author: auroranebulas
   6:Modules/DJImotor/djimotor.c ****  */
   7:Modules/DJImotor/djimotor.c **** 
   8:Modules/DJImotor/djimotor.c **** #include "chassis_control.h"
   9:Modules/DJImotor/djimotor.c **** #include "pid.h"
  10:Modules/DJImotor/djimotor.c **** #include "Bsp_can.h"
  11:Modules/DJImotor/djimotor.c **** #include "robot_cmd.h"
  12:Modules/DJImotor/djimotor.c **** #include "chassis_control.h"
  13:Modules/DJImotor/djimotor.c **** #include "djimotor.h"
  14:Modules/DJImotor/djimotor.c **** 
  15:Modules/DJImotor/djimotor.c **** 
  16:Modules/DJImotor/djimotor.c **** 
  17:Modules/DJImotor/djimotor.c **** 
  18:Modules/DJImotor/djimotor.c **** extern Motor_6025_Typedef motor_array[6]; //前四位为底盘，后两位为云台
  19:Modules/DJImotor/djimotor.c **** extern rc RC_ctrl;
  20:Modules/DJImotor/djimotor.c **** static float position[5];
  21:Modules/DJImotor/djimotor.c **** static float last_position[5];
  22:Modules/DJImotor/djimotor.c **** float Velocity[5];
  23:Modules/DJImotor/djimotor.c **** float Last_Velocity[5];
  24:Modules/DJImotor/djimotor.c **** float Velocity_filter[5];
  25:Modules/DJImotor/djimotor.c **** slid_avg_filter_t Slid_filter[5];	//初始化滤波器示例
  26:Modules/DJImotor/djimotor.c **** extern float vt_lf, vt_rf, vt_lb, vt_rb;
  27:Modules/DJImotor/djimotor.c **** 
  28:Modules/DJImotor/djimotor.c **** 
  29:Modules/DJImotor/djimotor.c **** 
ARM GAS  C:\Users\AURORA~1\AppData\Local\Temp\ccbhOnh1.s 			page 2


  30:Modules/DJImotor/djimotor.c **** 
  31:Modules/DJImotor/djimotor.c **** void AngleSumCalc(int ID)
  32:Modules/DJImotor/djimotor.c **** {
  30              		.loc 1 32 1 view -0
  31              		.cfi_startproc
  32              		@ args = 0, pretend = 0, frame = 0
  33              		@ frame_needed = 0, uses_anonymous_args = 0
  34              		@ link register save eliminated.
  33:Modules/DJImotor/djimotor.c **** //	position[ID] = motor_array[ID].angle;
  34:Modules/DJImotor/djimotor.c **** 	float temp =   motor_array[ID].angle - last_position[ID];
  35              		.loc 1 34 2 view .LVU1
  36              		.loc 1 34 32 is_stmt 0 view .LVU2
  37 0000 00EB4002 		add	r2, r0, r0, lsl #1
  38 0004 0B4B     		ldr	r3, .L2
  39 0006 33F92230 		ldrsh	r3, [r3, r2, lsl #2]
  40 000a 07EE903A 		vmov	s15, r3	@ int
  41              		.loc 1 34 39 view .LVU3
  42 000e F8EEE77A 		vcvt.f32.s32	s15, s15
  43              		.loc 1 34 54 view .LVU4
  44 0012 094B     		ldr	r3, .L2+4
  45 0014 03EB8003 		add	r3, r3, r0, lsl #2
  46 0018 93ED007A 		vldr.32	s14, [r3]
  47              		.loc 1 34 8 view .LVU5
  48 001c 77EEC77A 		vsub.f32	s15, s15, s14
  49              	.LVL1:
  35:Modules/DJImotor/djimotor.c **** 	position[ID] +=  temp;
  50              		.loc 1 35 2 is_stmt 1 view .LVU6
  51              		.loc 1 35 10 is_stmt 0 view .LVU7
  52 0020 064B     		ldr	r3, .L2+8
  53 0022 03EB8003 		add	r3, r3, r0, lsl #2
  54 0026 93ED007A 		vldr.32	s14, [r3]
  55              		.loc 1 35 15 view .LVU8
  56 002a 77EE277A 		vadd.f32	s15, s14, s15
  57              	.LVL2:
  58              		.loc 1 35 15 view .LVU9
  59 002e C3ED007A 		vstr.32	s15, [r3]
  36:Modules/DJImotor/djimotor.c **** 
  37:Modules/DJImotor/djimotor.c **** 
  38:Modules/DJImotor/djimotor.c **** }
  60              		.loc 1 38 1 view .LVU10
  61 0032 7047     		bx	lr
  62              	.L3:
  63              		.align	2
  64              	.L2:
  65 0034 00000000 		.word	motor_array
  66 0038 00000000 		.word	last_position
  67 003c 00000000 		.word	position
  68              		.cfi_endproc
  69              	.LFE134:
  71              		.global	__aeabi_f2d
  72              		.global	__aeabi_dmul
  73              		.global	__aeabi_d2f
  74              		.section	.text.Velocity_Calclate,"ax",%progbits
  75              		.align	1
  76              		.global	Velocity_Calclate
  77              		.syntax unified
  78              		.thumb
ARM GAS  C:\Users\AURORA~1\AppData\Local\Temp\ccbhOnh1.s 			page 3


  79              		.thumb_func
  81              	Velocity_Calclate:
  82              	.LVL3:
  83              	.LFB135:
  39:Modules/DJImotor/djimotor.c **** 
  40:Modules/DJImotor/djimotor.c **** void Velocity_Calclate(int ID)
  41:Modules/DJImotor/djimotor.c **** {
  84              		.loc 1 41 1 is_stmt 1 view -0
  85              		.cfi_startproc
  86              		@ args = 0, pretend = 0, frame = 0
  87              		@ frame_needed = 0, uses_anonymous_args = 0
  88              		.loc 1 41 1 is_stmt 0 view .LVU12
  89 0000 70B5     		push	{r4, r5, r6, lr}
  90              	.LCFI0:
  91              		.cfi_def_cfa_offset 16
  92              		.cfi_offset 4, -16
  93              		.cfi_offset 5, -12
  94              		.cfi_offset 6, -8
  95              		.cfi_offset 14, -4
  96 0002 0446     		mov	r4, r0
  42:Modules/DJImotor/djimotor.c **** 	AngleSumCalc(ID);
  97              		.loc 1 42 2 is_stmt 1 view .LVU13
  98 0004 FFF7FEFF 		bl	AngleSumCalc
  99              	.LVL4:
  43:Modules/DJImotor/djimotor.c **** 
  44:Modules/DJImotor/djimotor.c **** 	Velocity[ID] = ((position[ID] - last_position[ID]) * (360.0 / 8192.0) ) * 166.66666667;
 100              		.loc 1 44 2 view .LVU14
 101              		.loc 1 44 27 is_stmt 0 view .LVU15
 102 0008 A600     		lsls	r6, r4, #2
 103 000a 174B     		ldr	r3, .L6+8
 104 000c 03EB8403 		add	r3, r3, r4, lsl #2
 105 0010 93ED007A 		vldr.32	s14, [r3]
 106              		.loc 1 44 47 view .LVU16
 107 0014 154D     		ldr	r5, .L6+12
 108 0016 05EB8405 		add	r5, r5, r4, lsl #2
 109 001a D5ED007A 		vldr.32	s15, [r5]
 110              		.loc 1 44 32 view .LVU17
 111 001e 77EE677A 		vsub.f32	s15, s14, s15
 112 0022 17EE900A 		vmov	r0, s15
 113 0026 FFF7FEFF 		bl	__aeabi_f2d
 114              	.LVL5:
 115              		.loc 1 44 53 view .LVU18
 116 002a 0022     		movs	r2, #0
 117 002c 104B     		ldr	r3, .L6+16
 118 002e FFF7FEFF 		bl	__aeabi_dmul
 119              	.LVL6:
 120              		.loc 1 44 74 view .LVU19
 121 0032 0BA3     		adr	r3, .L6
 122 0034 D3E90023 		ldrd	r2, [r3]
 123 0038 FFF7FEFF 		bl	__aeabi_dmul
 124              	.LVL7:
 125 003c FFF7FEFF 		bl	__aeabi_d2f
 126              	.LVL8:
 127              		.loc 1 44 15 view .LVU20
 128 0040 0C4B     		ldr	r3, .L6+20
 129 0042 3344     		add	r3, r3, r6
 130 0044 1860     		str	r0, [r3]	@ float
ARM GAS  C:\Users\AURORA~1\AppData\Local\Temp\ccbhOnh1.s 			page 4


  45:Modules/DJImotor/djimotor.c **** 
  46:Modules/DJImotor/djimotor.c **** 	last_position[ID] = motor_array[ID].angle;
 131              		.loc 1 46 2 is_stmt 1 view .LVU21
 132              		.loc 1 46 37 is_stmt 0 view .LVU22
 133 0046 04EB4404 		add	r4, r4, r4, lsl #1
 134              	.LVL9:
 135              		.loc 1 46 37 view .LVU23
 136 004a 0B4B     		ldr	r3, .L6+24
 137 004c 33F92430 		ldrsh	r3, [r3, r4, lsl #2]
 138 0050 07EE903A 		vmov	s15, r3	@ int
 139              		.loc 1 46 20 view .LVU24
 140 0054 F8EEE77A 		vcvt.f32.s32	s15, s15
 141 0058 C5ED007A 		vstr.32	s15, [r5]
  47:Modules/DJImotor/djimotor.c **** }
 142              		.loc 1 47 1 view .LVU25
 143 005c 70BD     		pop	{r4, r5, r6, pc}
 144              	.L7:
 145 005e 00BF     		.align	3
 146              	.L6:
 147 0060 771F5755 		.word	1431773047
 148 0064 55D56440 		.word	1080350037
 149 0068 00000000 		.word	position
 150 006c 00000000 		.word	last_position
 151 0070 0080A63F 		.word	1067876352
 152 0074 00000000 		.word	Velocity
 153 0078 00000000 		.word	motor_array
 154              		.cfi_endproc
 155              	.LFE135:
 157              		.section	.text.DJIMotorStop,"ax",%progbits
 158              		.align	1
 159              		.global	DJIMotorStop
 160              		.syntax unified
 161              		.thumb
 162              		.thumb_func
 164              	DJIMotorStop:
 165              	.LFB136:
  48:Modules/DJImotor/djimotor.c **** 
  49:Modules/DJImotor/djimotor.c **** 
  50:Modules/DJImotor/djimotor.c **** void DJIMotorStop()
  51:Modules/DJImotor/djimotor.c **** {
 166              		.loc 1 51 1 is_stmt 1 view -0
 167              		.cfi_startproc
 168              		@ args = 0, pretend = 0, frame = 0
 169              		@ frame_needed = 0, uses_anonymous_args = 0
 170 0000 00B5     		push	{lr}
 171              	.LCFI1:
 172              		.cfi_def_cfa_offset 4
 173              		.cfi_offset 14, -4
 174 0002 83B0     		sub	sp, sp, #12
 175              	.LCFI2:
 176              		.cfi_def_cfa_offset 16
  52:Modules/DJImotor/djimotor.c **** 	set_motor_value(0x200, 0, 0, 0, 0);
 177              		.loc 1 52 2 view .LVU27
 178 0004 0021     		movs	r1, #0
 179 0006 0091     		str	r1, [sp]
 180 0008 0B46     		mov	r3, r1
 181 000a 0A46     		mov	r2, r1
ARM GAS  C:\Users\AURORA~1\AppData\Local\Temp\ccbhOnh1.s 			page 5


 182 000c 4FF40070 		mov	r0, #512
 183 0010 FFF7FEFF 		bl	set_motor_value
 184              	.LVL10:
  53:Modules/DJImotor/djimotor.c **** }
 185              		.loc 1 53 1 is_stmt 0 view .LVU28
 186 0014 03B0     		add	sp, sp, #12
 187              	.LCFI3:
 188              		.cfi_def_cfa_offset 4
 189              		@ sp needed
 190 0016 5DF804FB 		ldr	pc, [sp], #4
 191              		.cfi_endproc
 192              	.LFE136:
 194              		.section	.text.Slid_avg_filter,"ax",%progbits
 195              		.align	1
 196              		.global	Slid_avg_filter
 197              		.syntax unified
 198              		.thumb
 199              		.thumb_func
 201              	Slid_avg_filter:
 202              	.LVL11:
 203              	.LFB137:
  54:Modules/DJImotor/djimotor.c **** 
  55:Modules/DJImotor/djimotor.c **** /*
  56:Modules/DJImotor/djimotor.c ****  * @brief 滑动滤波
  57:Modules/DJImotor/djimotor.c ****  * @param filter 滤波器
  58:Modules/DJImotor/djimotor.c ****  * @param data 最新数据
  59:Modules/DJImotor/djimotor.c ****  * @return 滤波后的结果
  60:Modules/DJImotor/djimotor.c ****  */
  61:Modules/DJImotor/djimotor.c **** float Slid_avg_filter(slid_avg_filter_t* const filter, const float data)
  62:Modules/DJImotor/djimotor.c **** {
 204              		.loc 1 62 1 is_stmt 1 view -0
 205              		.cfi_startproc
 206              		@ args = 0, pretend = 0, frame = 0
 207              		@ frame_needed = 0, uses_anonymous_args = 0
 208              		@ link register save eliminated.
  63:Modules/DJImotor/djimotor.c **** 	double temp;
 209              		.loc 1 63 2 view .LVU30
  64:Modules/DJImotor/djimotor.c **** 	
  65:Modules/DJImotor/djimotor.c **** 	//采用循环队列形式将最新数据入队
  66:Modules/DJImotor/djimotor.c **** 	filter->DataBuff[filter->index] = data;
 210              		.loc 1 66 2 view .LVU31
 211              		.loc 1 66 25 is_stmt 0 view .LVU32
 212 0000 8289     		ldrh	r2, [r0, #12]
 213              		.loc 1 66 34 view .LVU33
 214 0002 00EB8203 		add	r3, r0, r2, lsl #2
 215 0006 83ED000A 		vstr.32	s0, [r3]
  67:Modules/DJImotor/djimotor.c **** 	filter->index = (filter->index + 1) % SLID_WINDOWS_SIZE;
 216              		.loc 1 67 2 is_stmt 1 view .LVU34
 217              		.loc 1 67 33 is_stmt 0 view .LVU35
 218 000a 0132     		adds	r2, r2, #1
 219              		.loc 1 67 38 view .LVU36
 220 000c 094B     		ldr	r3, .L14
 221 000e 83FB0213 		smull	r1, r3, r3, r2
 222 0012 03EB4303 		add	r3, r3, r3, lsl #1
 223 0016 D31A     		subs	r3, r2, r3
 224              		.loc 1 67 16 view .LVU37
 225 0018 8381     		strh	r3, [r0, #12]	@ movhi
ARM GAS  C:\Users\AURORA~1\AppData\Local\Temp\ccbhOnh1.s 			page 6


  68:Modules/DJImotor/djimotor.c **** 	if(filter->size < SLID_WINDOWS_SIZE) filter->size += 1;
 226              		.loc 1 68 2 is_stmt 1 view .LVU38
 227              		.loc 1 68 11 is_stmt 0 view .LVU39
 228 001a C389     		ldrh	r3, [r0, #14]
 229              		.loc 1 68 4 view .LVU40
 230 001c 022B     		cmp	r3, #2
 231 001e 01D8     		bhi	.L11
 232              		.loc 1 68 39 is_stmt 1 discriminator 1 view .LVU41
 233              		.loc 1 68 52 is_stmt 0 discriminator 1 view .LVU42
 234 0020 0133     		adds	r3, r3, #1
 235 0022 C381     		strh	r3, [r0, #14]	@ movhi
 236              	.L11:
  69:Modules/DJImotor/djimotor.c **** 
  70:Modules/DJImotor/djimotor.c **** 	//取平均
  71:Modules/DJImotor/djimotor.c **** 	for(uint16_t i = 0; i < filter->size; i++)
 237              		.loc 1 71 2 is_stmt 1 view .LVU43
 238              	.LBB2:
 239              		.loc 1 71 6 view .LVU44
 240              	.LVL12:
 241              		.loc 1 71 15 is_stmt 0 view .LVU45
 242 0024 0023     		movs	r3, #0
 243              		.loc 1 71 2 view .LVU46
 244 0026 01E0     		b	.L12
 245              	.LVL13:
 246              	.L13:
  72:Modules/DJImotor/djimotor.c **** 	{
  73:Modules/DJImotor/djimotor.c **** 		temp += filter->DataBuff[i];
 247              		.loc 1 73 3 is_stmt 1 discriminator 3 view .LVU47
  71:Modules/DJImotor/djimotor.c **** 	{
 248              		.loc 1 71 41 discriminator 3 view .LVU48
 249 0028 0133     		adds	r3, r3, #1
 250              	.LVL14:
  71:Modules/DJImotor/djimotor.c **** 	{
 251              		.loc 1 71 41 is_stmt 0 discriminator 3 view .LVU49
 252 002a 9BB2     		uxth	r3, r3
 253              	.LVL15:
 254              	.L12:
  71:Modules/DJImotor/djimotor.c **** 	{
 255              		.loc 1 71 24 is_stmt 1 discriminator 1 view .LVU50
  71:Modules/DJImotor/djimotor.c **** 	{
 256              		.loc 1 71 32 is_stmt 0 discriminator 1 view .LVU51
 257 002c C289     		ldrh	r2, [r0, #14]
  71:Modules/DJImotor/djimotor.c **** 	{
 258              		.loc 1 71 24 discriminator 1 view .LVU52
 259 002e 9A42     		cmp	r2, r3
 260 0030 FAD8     		bhi	.L13
 261              	.LBE2:
  74:Modules/DJImotor/djimotor.c **** 	}
  75:Modules/DJImotor/djimotor.c **** 	temp /= filter->size;
 262              		.loc 1 75 2 is_stmt 1 view .LVU53
 263              	.LVL16:
  76:Modules/DJImotor/djimotor.c **** } 
 264              		.loc 1 76 1 is_stmt 0 view .LVU54
 265 0032 7047     		bx	lr
 266              	.L15:
 267              		.align	2
 268              	.L14:
ARM GAS  C:\Users\AURORA~1\AppData\Local\Temp\ccbhOnh1.s 			page 7


 269 0034 56555555 		.word	1431655766
 270              		.cfi_endproc
 271              	.LFE137:
 273              		.section	.text.Low_Pass_Filter,"ax",%progbits
 274              		.align	1
 275              		.global	Low_Pass_Filter
 276              		.syntax unified
 277              		.thumb
 278              		.thumb_func
 280              	Low_Pass_Filter:
 281              	.LVL17:
 282              	.LFB138:
  77:Modules/DJImotor/djimotor.c **** 
  78:Modules/DJImotor/djimotor.c **** /*
  79:Modules/DJImotor/djimotor.c ****  * @brief 低通滤波
  80:Modules/DJImotor/djimotor.c ****  * @param data 本次数据
  81:Modules/DJImotor/djimotor.c ****  * @param last_data 上次数据
  82:Modules/DJImotor/djimotor.c ****  * @return 滤波后的结果
  83:Modules/DJImotor/djimotor.c ****  */
  84:Modules/DJImotor/djimotor.c **** float Low_Pass_Filter(float data, float last_data)
  85:Modules/DJImotor/djimotor.c **** {
 283              		.loc 1 85 1 is_stmt 1 view -0
 284              		.cfi_startproc
 285              		@ args = 0, pretend = 0, frame = 0
 286              		@ frame_needed = 0, uses_anonymous_args = 0
 287              		@ link register save eliminated.
  86:Modules/DJImotor/djimotor.c **** 	double temp;
 288              		.loc 1 86 2 view .LVU56
  87:Modules/DJImotor/djimotor.c **** 
  88:Modules/DJImotor/djimotor.c **** 	temp = 0.7 * last_data + 0.3 * data;
 289              		.loc 1 88 2 view .LVU57
 290              	.LVL18:
  89:Modules/DJImotor/djimotor.c **** }
 291              		.loc 1 89 1 is_stmt 0 view .LVU58
 292 0000 7047     		bx	lr
 293              		.cfi_endproc
 294              	.LFE138:
 296              		.global	Slid_filter
 297              		.section	.bss.Slid_filter,"aw",%nobits
 298              		.align	2
 301              	Slid_filter:
 302 0000 00000000 		.space	80
 302      00000000 
 302      00000000 
 302      00000000 
 302      00000000 
 303              		.global	Velocity_filter
 304              		.section	.bss.Velocity_filter,"aw",%nobits
 305              		.align	2
 308              	Velocity_filter:
 309 0000 00000000 		.space	20
 309      00000000 
 309      00000000 
 309      00000000 
 309      00000000 
 310              		.global	Last_Velocity
 311              		.section	.bss.Last_Velocity,"aw",%nobits
ARM GAS  C:\Users\AURORA~1\AppData\Local\Temp\ccbhOnh1.s 			page 8


 312              		.align	2
 315              	Last_Velocity:
 316 0000 00000000 		.space	20
 316      00000000 
 316      00000000 
 316      00000000 
 316      00000000 
 317              		.global	Velocity
 318              		.section	.bss.Velocity,"aw",%nobits
 319              		.align	2
 322              	Velocity:
 323 0000 00000000 		.space	20
 323      00000000 
 323      00000000 
 323      00000000 
 323      00000000 
 324              		.section	.bss.last_position,"aw",%nobits
 325              		.align	2
 328              	last_position:
 329 0000 00000000 		.space	20
 329      00000000 
 329      00000000 
 329      00000000 
 329      00000000 
 330              		.section	.bss.position,"aw",%nobits
 331              		.align	2
 334              	position:
 335 0000 00000000 		.space	20
 335      00000000 
 335      00000000 
 335      00000000 
 335      00000000 
 336              		.text
 337              	.Letext0:
 338              		.file 2 "d:\\msys64\\mingw64\\arm-none-eabi\\include\\machine\\_default_types.h"
 339              		.file 3 "d:\\msys64\\mingw64\\arm-none-eabi\\include\\sys\\_stdint.h"
 340              		.file 4 "Bsp/Bsp_can.h"
 341              		.file 5 "Modules/DJImotor/djimotor.h"
ARM GAS  C:\Users\AURORA~1\AppData\Local\Temp\ccbhOnh1.s 			page 9

