ARM GAS  D:\msys64\tmp\cc2hCdxq.s 			page 1


   1              		.cpu cortex-m4
   2              		.arch armv7e-m
   3              		.fpu fpv4-sp-d16
   4              		.eabi_attribute 27, 1
   5              		.eabi_attribute 28, 1
   6              		.eabi_attribute 20, 1
   7              		.eabi_attribute 21, 1
   8              		.eabi_attribute 23, 3
   9              		.eabi_attribute 24, 1
  10              		.eabi_attribute 25, 1
  11              		.eabi_attribute 26, 1
  12              		.eabi_attribute 30, 6
  13              		.eabi_attribute 34, 1
  14              		.eabi_attribute 18, 4
  15              		.file	"freertos.c"
  16              		.text
  17              	.Ltext0:
  18              		.cfi_sections	.debug_frame
  19              		.file 1 "Core/Src/freertos.c"
  20              		.global	defaultTaskHandle
  21              		.section	.bss.defaultTaskHandle,"aw",%nobits
  22              		.align	2
  25              	defaultTaskHandle:
  26 0000 00000000 		.space	4
  27              		.global	defaultTask_attributes
  28              		.section	.rodata
  29              		.align	2
  30              	.LC0:
  31 0000 64656661 		.ascii	"defaultTask\000"
  31      756C7454 
  31      61736B00 
  32              		.section	.rodata.defaultTask_attributes,"a"
  33              		.align	2
  36              	defaultTask_attributes:
  37 0000 00000000 		.word	.LC0
  38 0004 00000000 		.space	16
  38      00000000 
  38      00000000 
  38      00000000 
  39 0014 00020000 		.word	512
  40 0018 18000000 		.word	24
  41 001c 00000000 		.space	8
  41      00000000 
  42              		.global	BMI088TaskHandle
  43              		.section	.bss.BMI088TaskHandle,"aw",%nobits
  44              		.align	2
  47              	BMI088TaskHandle:
  48 0000 00000000 		.space	4
  49              		.global	BMI088Task_attributes
  50              		.section	.rodata
  51              		.align	2
  52              	.LC1:
  53 000c 424D4930 		.ascii	"BMI088Task\000"
  53      38385461 
  53      736B00
  54              		.section	.rodata.BMI088Task_attributes,"a"
  55              		.align	2
ARM GAS  D:\msys64\tmp\cc2hCdxq.s 			page 2


  58              	BMI088Task_attributes:
  59 0000 0C000000 		.word	.LC1
  60 0004 00000000 		.space	16
  60      00000000 
  60      00000000 
  60      00000000 
  61 0014 00020000 		.word	512
  62 0018 20000000 		.word	32
  63 001c 00000000 		.space	8
  63      00000000 
  64              		.section	.text.MX_FREERTOS_Init,"ax",%progbits
  65              		.align	1
  66              		.global	MX_FREERTOS_Init
  67              		.syntax unified
  68              		.thumb
  69              		.thumb_func
  71              	MX_FREERTOS_Init:
  72              	.LFB138:
   1:Core/Src/freertos.c **** /* USER CODE BEGIN Header */
   2:Core/Src/freertos.c **** /**
   3:Core/Src/freertos.c ****   ******************************************************************************
   4:Core/Src/freertos.c ****   * File Name          : freertos.c
   5:Core/Src/freertos.c ****   * Description        : Code for freertos applications
   6:Core/Src/freertos.c ****   ******************************************************************************
   7:Core/Src/freertos.c ****   * @attention
   8:Core/Src/freertos.c ****   *
   9:Core/Src/freertos.c ****   * Copyright (c) 2024 STMicroelectronics.
  10:Core/Src/freertos.c ****   * All rights reserved.
  11:Core/Src/freertos.c ****   *
  12:Core/Src/freertos.c ****   * This software is licensed under terms that can be found in the LICENSE file
  13:Core/Src/freertos.c ****   * in the root directory of this software component.
  14:Core/Src/freertos.c ****   * If no LICENSE file comes with this software, it is provided AS-IS.
  15:Core/Src/freertos.c ****   *
  16:Core/Src/freertos.c ****   ******************************************************************************
  17:Core/Src/freertos.c ****   */
  18:Core/Src/freertos.c **** /* USER CODE END Header */
  19:Core/Src/freertos.c **** 
  20:Core/Src/freertos.c **** /* Includes ------------------------------------------------------------------*/
  21:Core/Src/freertos.c **** #include "FreeRTOS.h"
  22:Core/Src/freertos.c **** #include "task.h"
  23:Core/Src/freertos.c **** #include "main.h"
  24:Core/Src/freertos.c **** #include "cmsis_os.h"
  25:Core/Src/freertos.c **** 
  26:Core/Src/freertos.c **** /* Private includes ----------------------------------------------------------*/
  27:Core/Src/freertos.c **** /* USER CODE BEGIN Includes */
  28:Core/Src/freertos.c **** #include "bmi088.h"
  29:Core/Src/freertos.c **** /* USER CODE END Includes */
  30:Core/Src/freertos.c **** 
  31:Core/Src/freertos.c **** /* Private typedef -----------------------------------------------------------*/
  32:Core/Src/freertos.c **** /* USER CODE BEGIN PTD */
  33:Core/Src/freertos.c **** 
  34:Core/Src/freertos.c **** /* USER CODE END PTD */
  35:Core/Src/freertos.c **** 
  36:Core/Src/freertos.c **** /* Private define ------------------------------------------------------------*/
  37:Core/Src/freertos.c **** /* USER CODE BEGIN PD */
  38:Core/Src/freertos.c **** 
  39:Core/Src/freertos.c **** /* USER CODE END PD */
ARM GAS  D:\msys64\tmp\cc2hCdxq.s 			page 3


  40:Core/Src/freertos.c **** 
  41:Core/Src/freertos.c **** /* Private macro -------------------------------------------------------------*/
  42:Core/Src/freertos.c **** /* USER CODE BEGIN PM */
  43:Core/Src/freertos.c **** 
  44:Core/Src/freertos.c **** /* USER CODE END PM */
  45:Core/Src/freertos.c **** 
  46:Core/Src/freertos.c **** /* Private variables ---------------------------------------------------------*/
  47:Core/Src/freertos.c **** /* USER CODE BEGIN Variables */
  48:Core/Src/freertos.c **** 
  49:Core/Src/freertos.c **** /* USER CODE END Variables */
  50:Core/Src/freertos.c **** /* Definitions for defaultTask */
  51:Core/Src/freertos.c **** osThreadId_t defaultTaskHandle;
  52:Core/Src/freertos.c **** const osThreadAttr_t defaultTask_attributes = {
  53:Core/Src/freertos.c ****   .name = "defaultTask",
  54:Core/Src/freertos.c ****   .stack_size = 128 * 4,
  55:Core/Src/freertos.c ****   .priority = (osPriority_t) osPriorityNormal,
  56:Core/Src/freertos.c **** };
  57:Core/Src/freertos.c **** 
  58:Core/Src/freertos.c **** /* Private function prototypes -----------------------------------------------*/
  59:Core/Src/freertos.c **** /* USER CODE BEGIN FunctionPrototypes */
  60:Core/Src/freertos.c **** osThreadId_t BMI088TaskHandle;
  61:Core/Src/freertos.c **** const osThreadAttr_t BMI088Task_attributes = {
  62:Core/Src/freertos.c ****   .name = "BMI088Task",
  63:Core/Src/freertos.c ****   .stack_size = 128 * 4,
  64:Core/Src/freertos.c ****   .priority = (osPriority_t) osPriorityAboveNormal,
  65:Core/Src/freertos.c **** };
  66:Core/Src/freertos.c **** /* USER CODE END FunctionPrototypes */
  67:Core/Src/freertos.c **** 
  68:Core/Src/freertos.c **** void StartDefaultTask(void *argument);
  69:Core/Src/freertos.c **** void StartBMI088Task(void *argumen);
  70:Core/Src/freertos.c **** 
  71:Core/Src/freertos.c **** void MX_FREERTOS_Init(void); /* (MISRA C 2004 rule 8.1) */
  72:Core/Src/freertos.c **** 
  73:Core/Src/freertos.c **** /**
  74:Core/Src/freertos.c ****   * @brief  FreeRTOS initialization
  75:Core/Src/freertos.c ****   * @param  None
  76:Core/Src/freertos.c ****   * @retval None
  77:Core/Src/freertos.c ****   */
  78:Core/Src/freertos.c **** void MX_FREERTOS_Init(void) {
  73              		.loc 1 78 29
  74              		.cfi_startproc
  75              		@ args = 0, pretend = 0, frame = 0
  76              		@ frame_needed = 1, uses_anonymous_args = 0
  77 0000 80B5     		push	{r7, lr}
  78              	.LCFI0:
  79              		.cfi_def_cfa_offset 8
  80              		.cfi_offset 7, -8
  81              		.cfi_offset 14, -4
  82 0002 00AF     		add	r7, sp, #0
  83              	.LCFI1:
  84              		.cfi_def_cfa_register 7
  79:Core/Src/freertos.c ****   /* USER CODE BEGIN Init */
  80:Core/Src/freertos.c **** 
  81:Core/Src/freertos.c ****   /* USER CODE END Init */
  82:Core/Src/freertos.c **** 
  83:Core/Src/freertos.c ****   /* USER CODE BEGIN RTOS_MUTEX */
  84:Core/Src/freertos.c ****   /* add mutexes, ... */
ARM GAS  D:\msys64\tmp\cc2hCdxq.s 			page 4


  85:Core/Src/freertos.c ****   /* USER CODE END RTOS_MUTEX */
  86:Core/Src/freertos.c **** 
  87:Core/Src/freertos.c ****   /* USER CODE BEGIN RTOS_SEMAPHORES */
  88:Core/Src/freertos.c ****   /* add semaphores, ... */
  89:Core/Src/freertos.c ****   /* USER CODE END RTOS_SEMAPHORES */
  90:Core/Src/freertos.c **** 
  91:Core/Src/freertos.c ****   /* USER CODE BEGIN RTOS_TIMERS */
  92:Core/Src/freertos.c ****   /* start timers, add new ones, ... */
  93:Core/Src/freertos.c ****   /* USER CODE END RTOS_TIMERS */
  94:Core/Src/freertos.c **** 
  95:Core/Src/freertos.c ****   /* USER CODE BEGIN RTOS_QUEUES */
  96:Core/Src/freertos.c ****   /* add queues, ... */
  97:Core/Src/freertos.c ****   /* USER CODE END RTOS_QUEUES */
  98:Core/Src/freertos.c **** 
  99:Core/Src/freertos.c ****   /* Create the thread(s) */
 100:Core/Src/freertos.c ****   /* creation of defaultTask */
 101:Core/Src/freertos.c ****   defaultTaskHandle = osThreadNew(StartDefaultTask, NULL, &defaultTask_attributes);
  85              		.loc 1 101 23
  86 0004 084A     		ldr	r2, .L2
  87 0006 0021     		movs	r1, #0
  88 0008 0848     		ldr	r0, .L2+4
  89 000a FFF7FEFF 		bl	osThreadNew
  90 000e 0346     		mov	r3, r0
  91              		.loc 1 101 21 discriminator 1
  92 0010 074A     		ldr	r2, .L2+8
  93 0012 1360     		str	r3, [r2]
 102:Core/Src/freertos.c ****   BMI088TaskHandle = osThreadNew(StartBMI088Task, NULL, &BMI088Task_attributes);
  94              		.loc 1 102 22
  95 0014 074A     		ldr	r2, .L2+12
  96 0016 0021     		movs	r1, #0
  97 0018 0748     		ldr	r0, .L2+16
  98 001a FFF7FEFF 		bl	osThreadNew
  99 001e 0346     		mov	r3, r0
 100              		.loc 1 102 20 discriminator 1
 101 0020 064A     		ldr	r2, .L2+20
 102 0022 1360     		str	r3, [r2]
 103:Core/Src/freertos.c ****   /* USER CODE BEGIN RTOS_THREADS */
 104:Core/Src/freertos.c ****   /* add threads, ... */
 105:Core/Src/freertos.c ****   /* USER CODE END RTOS_THREADS */
 106:Core/Src/freertos.c **** 
 107:Core/Src/freertos.c ****   /* USER CODE BEGIN RTOS_EVENTS */
 108:Core/Src/freertos.c ****   /* add events, ... */
 109:Core/Src/freertos.c ****   /* USER CODE END RTOS_EVENTS */
 110:Core/Src/freertos.c **** 
 111:Core/Src/freertos.c **** }
 103              		.loc 1 111 1
 104 0024 00BF     		nop
 105 0026 80BD     		pop	{r7, pc}
 106              	.L3:
 107              		.align	2
 108              	.L2:
 109 0028 00000000 		.word	defaultTask_attributes
 110 002c 00000000 		.word	StartDefaultTask
 111 0030 00000000 		.word	defaultTaskHandle
 112 0034 00000000 		.word	BMI088Task_attributes
 113 0038 00000000 		.word	StartBMI088Task
 114 003c 00000000 		.word	BMI088TaskHandle
ARM GAS  D:\msys64\tmp\cc2hCdxq.s 			page 5


 115              		.cfi_endproc
 116              	.LFE138:
 118              		.section	.text.StartDefaultTask,"ax",%progbits
 119              		.align	1
 120              		.global	StartDefaultTask
 121              		.syntax unified
 122              		.thumb
 123              		.thumb_func
 125              	StartDefaultTask:
 126              	.LFB139:
 112:Core/Src/freertos.c **** 
 113:Core/Src/freertos.c **** /* USER CODE BEGIN Header_StartDefaultTask */
 114:Core/Src/freertos.c **** /**
 115:Core/Src/freertos.c ****   * @brief  Function implementing the defaultTask thread.
 116:Core/Src/freertos.c ****   * @param  argument: Not used
 117:Core/Src/freertos.c ****   * @retval None
 118:Core/Src/freertos.c ****   */
 119:Core/Src/freertos.c **** /* USER CODE END Header_StartDefaultTask */
 120:Core/Src/freertos.c **** void StartDefaultTask(void *argument)
 121:Core/Src/freertos.c **** {
 127              		.loc 1 121 1
 128              		.cfi_startproc
 129              		@ args = 0, pretend = 0, frame = 8
 130              		@ frame_needed = 1, uses_anonymous_args = 0
 131              		@ link register save eliminated.
 132 0000 80B4     		push	{r7}
 133              	.LCFI2:
 134              		.cfi_def_cfa_offset 4
 135              		.cfi_offset 7, -4
 136 0002 83B0     		sub	sp, sp, #12
 137              	.LCFI3:
 138              		.cfi_def_cfa_offset 16
 139 0004 00AF     		add	r7, sp, #0
 140              	.LCFI4:
 141              		.cfi_def_cfa_register 7
 142 0006 7860     		str	r0, [r7, #4]
 143              	.L5:
 122:Core/Src/freertos.c ****   /* USER CODE BEGIN StartDefaultTask */
 123:Core/Src/freertos.c ****     
 124:Core/Src/freertos.c ****     //vTaskDelete(NULL);
 125:Core/Src/freertos.c ****   /* Infinite loop */
 126:Core/Src/freertos.c ****   for(;;)
 144              		.loc 1 126 3
 145 0008 00BF     		nop
 146 000a FDE7     		b	.L5
 147              		.cfi_endproc
 148              	.LFE139:
 150              		.section	.text.StartBMI088Task,"ax",%progbits
 151              		.align	1
 152              		.global	StartBMI088Task
 153              		.syntax unified
 154              		.thumb
 155              		.thumb_func
 157              	StartBMI088Task:
 158              	.LFB140:
 127:Core/Src/freertos.c ****   {
 128:Core/Src/freertos.c ****     
ARM GAS  D:\msys64\tmp\cc2hCdxq.s 			page 6


 129:Core/Src/freertos.c ****   }
 130:Core/Src/freertos.c ****   /* USER CODE END StartDefaultTask */
 131:Core/Src/freertos.c **** }
 132:Core/Src/freertos.c **** 
 133:Core/Src/freertos.c **** /* Private application code --------------------------------------------------*/
 134:Core/Src/freertos.c **** /* USER CODE BEGIN Application */
 135:Core/Src/freertos.c **** void StartBMI088Task(void *argumen)
 136:Core/Src/freertos.c **** {
 159              		.loc 1 136 1
 160              		.cfi_startproc
 161              		@ args = 0, pretend = 0, frame = 8
 162              		@ frame_needed = 1, uses_anonymous_args = 0
 163 0000 80B5     		push	{r7, lr}
 164              	.LCFI5:
 165              		.cfi_def_cfa_offset 8
 166              		.cfi_offset 7, -8
 167              		.cfi_offset 14, -4
 168 0002 82B0     		sub	sp, sp, #8
 169              	.LCFI6:
 170              		.cfi_def_cfa_offset 16
 171 0004 00AF     		add	r7, sp, #0
 172              	.LCFI7:
 173              		.cfi_def_cfa_register 7
 174 0006 7860     		str	r0, [r7, #4]
 175              	.L7:
 137:Core/Src/freertos.c ****   for(;;)
 138:Core/Src/freertos.c ****   {
 139:Core/Src/freertos.c ****     BMI088_Accel_Read();
 176              		.loc 1 139 5
 177 0008 FFF7FEFF 		bl	BMI088_Accel_Read
 140:Core/Src/freertos.c ****     BMI088_Gyro_Read();
 178              		.loc 1 140 5
 179 000c FFF7FEFF 		bl	BMI088_Gyro_Read
 141:Core/Src/freertos.c ****     osDelay(1);
 180              		.loc 1 141 5 discriminator 1
 181 0010 0120     		movs	r0, #1
 182 0012 FFF7FEFF 		bl	osDelay
 139:Core/Src/freertos.c ****     BMI088_Gyro_Read();
 183              		.loc 1 139 5
 184 0016 00BF     		nop
 185 0018 F6E7     		b	.L7
 186              		.cfi_endproc
 187              	.LFE140:
 189              		.text
 190              	.Letext0:
 191              		.file 2 "D:/msys64/mingw64/arm-none-eabi/include/machine/_default_types.h"
 192              		.file 3 "D:/msys64/mingw64/arm-none-eabi/include/sys/_stdint.h"
 193              		.file 4 "Middlewares/Third_Party/FreeRTOS/Source/CMSIS_RTOS_V2/cmsis_os2.h"
 194              		.file 5 "BMI088/bmi088.h"
ARM GAS  D:\msys64\tmp\cc2hCdxq.s 			page 7

