ARM GAS  D:\msys64\tmp\cc7GdxsV.s 			page 1


   1              		.cpu cortex-m4
   2              		.arch armv7e-m
   3              		.fpu fpv4-sp-d16
   4              		.eabi_attribute 27, 1
   5              		.eabi_attribute 28, 1
   6              		.eabi_attribute 20, 1
   7              		.eabi_attribute 21, 1
   8              		.eabi_attribute 23, 3
   9              		.eabi_attribute 24, 1
  10              		.eabi_attribute 25, 1
  11              		.eabi_attribute 26, 1
  12              		.eabi_attribute 30, 6
  13              		.eabi_attribute 34, 1
  14              		.eabi_attribute 18, 4
  15              		.file	"spi.c"
  16              		.text
  17              	.Ltext0:
  18              		.cfi_sections	.debug_frame
  19              		.file 1 "Core/Src/spi.c"
  20              		.global	hspi1
  21              		.section	.bss.hspi1,"aw",%nobits
  22              		.align	2
  25              	hspi1:
  26 0000 00000000 		.space	88
  26      00000000 
  26      00000000 
  26      00000000 
  26      00000000 
  27              		.global	hdma_spi1_rx
  28              		.section	.bss.hdma_spi1_rx,"aw",%nobits
  29              		.align	2
  32              	hdma_spi1_rx:
  33 0000 00000000 		.space	96
  33      00000000 
  33      00000000 
  33      00000000 
  33      00000000 
  34              		.global	hdma_spi1_tx
  35              		.section	.bss.hdma_spi1_tx,"aw",%nobits
  36              		.align	2
  39              	hdma_spi1_tx:
  40 0000 00000000 		.space	96
  40      00000000 
  40      00000000 
  40      00000000 
  40      00000000 
  41              		.section	.text.MX_SPI1_Init,"ax",%progbits
  42              		.align	1
  43              		.global	MX_SPI1_Init
  44              		.syntax unified
  45              		.thumb
  46              		.thumb_func
  48              	MX_SPI1_Init:
  49              	.LFB134:
   1:Core/Src/spi.c **** /* USER CODE BEGIN Header */
   2:Core/Src/spi.c **** /**
   3:Core/Src/spi.c ****   ******************************************************************************
ARM GAS  D:\msys64\tmp\cc7GdxsV.s 			page 2


   4:Core/Src/spi.c ****   * @file    spi.c
   5:Core/Src/spi.c ****   * @brief   This file provides code for the configuration
   6:Core/Src/spi.c ****   *          of the SPI instances.
   7:Core/Src/spi.c ****   ******************************************************************************
   8:Core/Src/spi.c ****   * @attention
   9:Core/Src/spi.c ****   *
  10:Core/Src/spi.c ****   * Copyright (c) 2024 STMicroelectronics.
  11:Core/Src/spi.c ****   * All rights reserved.
  12:Core/Src/spi.c ****   *
  13:Core/Src/spi.c ****   * This software is licensed under terms that can be found in the LICENSE file
  14:Core/Src/spi.c ****   * in the root directory of this software component.
  15:Core/Src/spi.c ****   * If no LICENSE file comes with this software, it is provided AS-IS.
  16:Core/Src/spi.c ****   *
  17:Core/Src/spi.c ****   ******************************************************************************
  18:Core/Src/spi.c ****   */
  19:Core/Src/spi.c **** /* USER CODE END Header */
  20:Core/Src/spi.c **** /* Includes ------------------------------------------------------------------*/
  21:Core/Src/spi.c **** #include "spi.h"
  22:Core/Src/spi.c **** 
  23:Core/Src/spi.c **** /* USER CODE BEGIN 0 */
  24:Core/Src/spi.c **** 
  25:Core/Src/spi.c **** /* USER CODE END 0 */
  26:Core/Src/spi.c **** 
  27:Core/Src/spi.c **** SPI_HandleTypeDef hspi1;
  28:Core/Src/spi.c **** DMA_HandleTypeDef hdma_spi1_rx;
  29:Core/Src/spi.c **** DMA_HandleTypeDef hdma_spi1_tx;
  30:Core/Src/spi.c **** 
  31:Core/Src/spi.c **** /* SPI1 init function */
  32:Core/Src/spi.c **** void MX_SPI1_Init(void)
  33:Core/Src/spi.c **** {
  50              		.loc 1 33 1
  51              		.cfi_startproc
  52              		@ args = 0, pretend = 0, frame = 0
  53              		@ frame_needed = 1, uses_anonymous_args = 0
  54 0000 80B5     		push	{r7, lr}
  55              	.LCFI0:
  56              		.cfi_def_cfa_offset 8
  57              		.cfi_offset 7, -8
  58              		.cfi_offset 14, -4
  59 0002 00AF     		add	r7, sp, #0
  60              	.LCFI1:
  61              		.cfi_def_cfa_register 7
  34:Core/Src/spi.c **** 
  35:Core/Src/spi.c ****   /* USER CODE BEGIN SPI1_Init 0 */
  36:Core/Src/spi.c **** 
  37:Core/Src/spi.c ****   /* USER CODE END SPI1_Init 0 */
  38:Core/Src/spi.c **** 
  39:Core/Src/spi.c ****   /* USER CODE BEGIN SPI1_Init 1 */
  40:Core/Src/spi.c **** 
  41:Core/Src/spi.c ****   /* USER CODE END SPI1_Init 1 */
  42:Core/Src/spi.c ****   hspi1.Instance = SPI1;
  62              		.loc 1 42 18
  63 0004 174B     		ldr	r3, .L4
  64 0006 184A     		ldr	r2, .L4+4
  65 0008 1A60     		str	r2, [r3]
  43:Core/Src/spi.c ****   hspi1.Init.Mode = SPI_MODE_MASTER;
  66              		.loc 1 43 19
ARM GAS  D:\msys64\tmp\cc7GdxsV.s 			page 3


  67 000a 164B     		ldr	r3, .L4
  68 000c 4FF48272 		mov	r2, #260
  69 0010 5A60     		str	r2, [r3, #4]
  44:Core/Src/spi.c ****   hspi1.Init.Direction = SPI_DIRECTION_2LINES;
  70              		.loc 1 44 24
  71 0012 144B     		ldr	r3, .L4
  72 0014 0022     		movs	r2, #0
  73 0016 9A60     		str	r2, [r3, #8]
  45:Core/Src/spi.c ****   hspi1.Init.DataSize = SPI_DATASIZE_8BIT;
  74              		.loc 1 45 23
  75 0018 124B     		ldr	r3, .L4
  76 001a 0022     		movs	r2, #0
  77 001c DA60     		str	r2, [r3, #12]
  46:Core/Src/spi.c ****   hspi1.Init.CLKPolarity = SPI_POLARITY_HIGH;
  78              		.loc 1 46 26
  79 001e 114B     		ldr	r3, .L4
  80 0020 0222     		movs	r2, #2
  81 0022 1A61     		str	r2, [r3, #16]
  47:Core/Src/spi.c ****   hspi1.Init.CLKPhase = SPI_PHASE_2EDGE;
  82              		.loc 1 47 23
  83 0024 0F4B     		ldr	r3, .L4
  84 0026 0122     		movs	r2, #1
  85 0028 5A61     		str	r2, [r3, #20]
  48:Core/Src/spi.c ****   hspi1.Init.NSS = SPI_NSS_SOFT;
  86              		.loc 1 48 18
  87 002a 0E4B     		ldr	r3, .L4
  88 002c 4FF40072 		mov	r2, #512
  89 0030 9A61     		str	r2, [r3, #24]
  49:Core/Src/spi.c ****   hspi1.Init.BaudRatePrescaler = SPI_BAUDRATEPRESCALER_16;
  90              		.loc 1 49 32
  91 0032 0C4B     		ldr	r3, .L4
  92 0034 1822     		movs	r2, #24
  93 0036 DA61     		str	r2, [r3, #28]
  50:Core/Src/spi.c ****   hspi1.Init.FirstBit = SPI_FIRSTBIT_MSB;
  94              		.loc 1 50 23
  95 0038 0A4B     		ldr	r3, .L4
  96 003a 0022     		movs	r2, #0
  97 003c 1A62     		str	r2, [r3, #32]
  51:Core/Src/spi.c ****   hspi1.Init.TIMode = SPI_TIMODE_DISABLE;
  98              		.loc 1 51 21
  99 003e 094B     		ldr	r3, .L4
 100 0040 0022     		movs	r2, #0
 101 0042 5A62     		str	r2, [r3, #36]
  52:Core/Src/spi.c ****   hspi1.Init.CRCCalculation = SPI_CRCCALCULATION_DISABLE;
 102              		.loc 1 52 29
 103 0044 074B     		ldr	r3, .L4
 104 0046 0022     		movs	r2, #0
 105 0048 9A62     		str	r2, [r3, #40]
  53:Core/Src/spi.c ****   hspi1.Init.CRCPolynomial = 10;
 106              		.loc 1 53 28
 107 004a 064B     		ldr	r3, .L4
 108 004c 0A22     		movs	r2, #10
 109 004e DA62     		str	r2, [r3, #44]
  54:Core/Src/spi.c ****   if (HAL_SPI_Init(&hspi1) != HAL_OK)
 110              		.loc 1 54 7
 111 0050 0448     		ldr	r0, .L4
 112 0052 FFF7FEFF 		bl	HAL_SPI_Init
ARM GAS  D:\msys64\tmp\cc7GdxsV.s 			page 4


 113 0056 0346     		mov	r3, r0
 114              		.loc 1 54 6 discriminator 1
 115 0058 002B     		cmp	r3, #0
 116 005a 01D0     		beq	.L3
  55:Core/Src/spi.c ****   {
  56:Core/Src/spi.c ****     Error_Handler();
 117              		.loc 1 56 5
 118 005c FFF7FEFF 		bl	Error_Handler
 119              	.L3:
  57:Core/Src/spi.c ****   }
  58:Core/Src/spi.c ****   /* USER CODE BEGIN SPI1_Init 2 */
  59:Core/Src/spi.c **** 
  60:Core/Src/spi.c ****   /* USER CODE END SPI1_Init 2 */
  61:Core/Src/spi.c **** 
  62:Core/Src/spi.c **** }
 120              		.loc 1 62 1
 121 0060 00BF     		nop
 122 0062 80BD     		pop	{r7, pc}
 123              	.L5:
 124              		.align	2
 125              	.L4:
 126 0064 00000000 		.word	hspi1
 127 0068 00300140 		.word	1073819648
 128              		.cfi_endproc
 129              	.LFE134:
 131              		.section	.text.HAL_SPI_MspInit,"ax",%progbits
 132              		.align	1
 133              		.global	HAL_SPI_MspInit
 134              		.syntax unified
 135              		.thumb
 136              		.thumb_func
 138              	HAL_SPI_MspInit:
 139              	.LFB135:
  63:Core/Src/spi.c **** 
  64:Core/Src/spi.c **** void HAL_SPI_MspInit(SPI_HandleTypeDef* spiHandle)
  65:Core/Src/spi.c **** {
 140              		.loc 1 65 1
 141              		.cfi_startproc
 142              		@ args = 0, pretend = 0, frame = 40
 143              		@ frame_needed = 1, uses_anonymous_args = 0
 144 0000 80B5     		push	{r7, lr}
 145              	.LCFI2:
 146              		.cfi_def_cfa_offset 8
 147              		.cfi_offset 7, -8
 148              		.cfi_offset 14, -4
 149 0002 8AB0     		sub	sp, sp, #40
 150              	.LCFI3:
 151              		.cfi_def_cfa_offset 48
 152 0004 00AF     		add	r7, sp, #0
 153              	.LCFI4:
 154              		.cfi_def_cfa_register 7
 155 0006 7860     		str	r0, [r7, #4]
  66:Core/Src/spi.c **** 
  67:Core/Src/spi.c ****   GPIO_InitTypeDef GPIO_InitStruct = {0};
 156              		.loc 1 67 20
 157 0008 07F11403 		add	r3, r7, #20
 158 000c 0022     		movs	r2, #0
ARM GAS  D:\msys64\tmp\cc7GdxsV.s 			page 5


 159 000e 1A60     		str	r2, [r3]
 160 0010 5A60     		str	r2, [r3, #4]
 161 0012 9A60     		str	r2, [r3, #8]
 162 0014 DA60     		str	r2, [r3, #12]
 163 0016 1A61     		str	r2, [r3, #16]
  68:Core/Src/spi.c ****   if(spiHandle->Instance==SPI1)
 164              		.loc 1 68 15
 165 0018 7B68     		ldr	r3, [r7, #4]
 166 001a 1B68     		ldr	r3, [r3]
 167              		.loc 1 68 5
 168 001c 5A4A     		ldr	r2, .L11
 169 001e 9342     		cmp	r3, r2
 170 0020 40F0AE80 		bne	.L10
 171              	.LBB2:
  69:Core/Src/spi.c ****   {
  70:Core/Src/spi.c ****   /* USER CODE BEGIN SPI1_MspInit 0 */
  71:Core/Src/spi.c **** 
  72:Core/Src/spi.c ****   /* USER CODE END SPI1_MspInit 0 */
  73:Core/Src/spi.c ****     /* SPI1 clock enable */
  74:Core/Src/spi.c ****     __HAL_RCC_SPI1_CLK_ENABLE();
 172              		.loc 1 74 5
 173 0024 0023     		movs	r3, #0
 174 0026 3B61     		str	r3, [r7, #16]
 175 0028 584B     		ldr	r3, .L11+4
 176 002a 5B6C     		ldr	r3, [r3, #68]
 177 002c 574A     		ldr	r2, .L11+4
 178 002e 43F48053 		orr	r3, r3, #4096
 179 0032 5364     		str	r3, [r2, #68]
 180 0034 554B     		ldr	r3, .L11+4
 181 0036 5B6C     		ldr	r3, [r3, #68]
 182 0038 03F48053 		and	r3, r3, #4096
 183 003c 3B61     		str	r3, [r7, #16]
 184 003e 3B69     		ldr	r3, [r7, #16]
 185              	.LBE2:
 186              	.LBB3:
  75:Core/Src/spi.c **** 
  76:Core/Src/spi.c ****     __HAL_RCC_GPIOB_CLK_ENABLE();
 187              		.loc 1 76 5
 188 0040 0023     		movs	r3, #0
 189 0042 FB60     		str	r3, [r7, #12]
 190 0044 514B     		ldr	r3, .L11+4
 191 0046 1B6B     		ldr	r3, [r3, #48]
 192 0048 504A     		ldr	r2, .L11+4
 193 004a 43F00203 		orr	r3, r3, #2
 194 004e 1363     		str	r3, [r2, #48]
 195 0050 4E4B     		ldr	r3, .L11+4
 196 0052 1B6B     		ldr	r3, [r3, #48]
 197 0054 03F00203 		and	r3, r3, #2
 198 0058 FB60     		str	r3, [r7, #12]
 199 005a FB68     		ldr	r3, [r7, #12]
 200              	.LBE3:
 201              	.LBB4:
  77:Core/Src/spi.c ****     __HAL_RCC_GPIOA_CLK_ENABLE();
 202              		.loc 1 77 5
 203 005c 0023     		movs	r3, #0
 204 005e BB60     		str	r3, [r7, #8]
 205 0060 4A4B     		ldr	r3, .L11+4
ARM GAS  D:\msys64\tmp\cc7GdxsV.s 			page 6


 206 0062 1B6B     		ldr	r3, [r3, #48]
 207 0064 494A     		ldr	r2, .L11+4
 208 0066 43F00103 		orr	r3, r3, #1
 209 006a 1363     		str	r3, [r2, #48]
 210 006c 474B     		ldr	r3, .L11+4
 211 006e 1B6B     		ldr	r3, [r3, #48]
 212 0070 03F00103 		and	r3, r3, #1
 213 0074 BB60     		str	r3, [r7, #8]
 214 0076 BB68     		ldr	r3, [r7, #8]
 215              	.LBE4:
  78:Core/Src/spi.c ****     /**SPI1 GPIO Configuration
  79:Core/Src/spi.c ****     PB4     ------> SPI1_MISO
  80:Core/Src/spi.c ****     PB3     ------> SPI1_SCK
  81:Core/Src/spi.c ****     PA7     ------> SPI1_MOSI
  82:Core/Src/spi.c ****     */
  83:Core/Src/spi.c ****     GPIO_InitStruct.Pin = GPIO_PIN_4|GPIO_PIN_3;
 216              		.loc 1 83 25
 217 0078 1823     		movs	r3, #24
 218 007a 7B61     		str	r3, [r7, #20]
  84:Core/Src/spi.c ****     GPIO_InitStruct.Mode = GPIO_MODE_AF_PP;
 219              		.loc 1 84 26
 220 007c 0223     		movs	r3, #2
 221 007e BB61     		str	r3, [r7, #24]
  85:Core/Src/spi.c ****     GPIO_InitStruct.Pull = GPIO_NOPULL;
 222              		.loc 1 85 26
 223 0080 0023     		movs	r3, #0
 224 0082 FB61     		str	r3, [r7, #28]
  86:Core/Src/spi.c ****     GPIO_InitStruct.Speed = GPIO_SPEED_FREQ_VERY_HIGH;
 225              		.loc 1 86 27
 226 0084 0323     		movs	r3, #3
 227 0086 3B62     		str	r3, [r7, #32]
  87:Core/Src/spi.c ****     GPIO_InitStruct.Alternate = GPIO_AF5_SPI1;
 228              		.loc 1 87 31
 229 0088 0523     		movs	r3, #5
 230 008a 7B62     		str	r3, [r7, #36]
  88:Core/Src/spi.c ****     HAL_GPIO_Init(GPIOB, &GPIO_InitStruct);
 231              		.loc 1 88 5
 232 008c 07F11403 		add	r3, r7, #20
 233 0090 1946     		mov	r1, r3
 234 0092 3F48     		ldr	r0, .L11+8
 235 0094 FFF7FEFF 		bl	HAL_GPIO_Init
  89:Core/Src/spi.c **** 
  90:Core/Src/spi.c ****     GPIO_InitStruct.Pin = GPIO_PIN_7;
 236              		.loc 1 90 25
 237 0098 8023     		movs	r3, #128
 238 009a 7B61     		str	r3, [r7, #20]
  91:Core/Src/spi.c ****     GPIO_InitStruct.Mode = GPIO_MODE_AF_PP;
 239              		.loc 1 91 26
 240 009c 0223     		movs	r3, #2
 241 009e BB61     		str	r3, [r7, #24]
  92:Core/Src/spi.c ****     GPIO_InitStruct.Pull = GPIO_NOPULL;
 242              		.loc 1 92 26
 243 00a0 0023     		movs	r3, #0
 244 00a2 FB61     		str	r3, [r7, #28]
  93:Core/Src/spi.c ****     GPIO_InitStruct.Speed = GPIO_SPEED_FREQ_VERY_HIGH;
 245              		.loc 1 93 27
 246 00a4 0323     		movs	r3, #3
ARM GAS  D:\msys64\tmp\cc7GdxsV.s 			page 7


 247 00a6 3B62     		str	r3, [r7, #32]
  94:Core/Src/spi.c ****     GPIO_InitStruct.Alternate = GPIO_AF5_SPI1;
 248              		.loc 1 94 31
 249 00a8 0523     		movs	r3, #5
 250 00aa 7B62     		str	r3, [r7, #36]
  95:Core/Src/spi.c ****     HAL_GPIO_Init(GPIOA, &GPIO_InitStruct);
 251              		.loc 1 95 5
 252 00ac 07F11403 		add	r3, r7, #20
 253 00b0 1946     		mov	r1, r3
 254 00b2 3848     		ldr	r0, .L11+12
 255 00b4 FFF7FEFF 		bl	HAL_GPIO_Init
  96:Core/Src/spi.c **** 
  97:Core/Src/spi.c ****     /* SPI1 DMA Init */
  98:Core/Src/spi.c ****     /* SPI1_RX Init */
  99:Core/Src/spi.c ****     hdma_spi1_rx.Instance = DMA2_Stream0;
 256              		.loc 1 99 27
 257 00b8 374B     		ldr	r3, .L11+16
 258 00ba 384A     		ldr	r2, .L11+20
 259 00bc 1A60     		str	r2, [r3]
 100:Core/Src/spi.c ****     hdma_spi1_rx.Init.Channel = DMA_CHANNEL_3;
 260              		.loc 1 100 31
 261 00be 364B     		ldr	r3, .L11+16
 262 00c0 4FF0C062 		mov	r2, #100663296
 263 00c4 5A60     		str	r2, [r3, #4]
 101:Core/Src/spi.c ****     hdma_spi1_rx.Init.Direction = DMA_PERIPH_TO_MEMORY;
 264              		.loc 1 101 33
 265 00c6 344B     		ldr	r3, .L11+16
 266 00c8 0022     		movs	r2, #0
 267 00ca 9A60     		str	r2, [r3, #8]
 102:Core/Src/spi.c ****     hdma_spi1_rx.Init.PeriphInc = DMA_PINC_DISABLE;
 268              		.loc 1 102 33
 269 00cc 324B     		ldr	r3, .L11+16
 270 00ce 0022     		movs	r2, #0
 271 00d0 DA60     		str	r2, [r3, #12]
 103:Core/Src/spi.c ****     hdma_spi1_rx.Init.MemInc = DMA_MINC_ENABLE;
 272              		.loc 1 103 30
 273 00d2 314B     		ldr	r3, .L11+16
 274 00d4 4FF48062 		mov	r2, #1024
 275 00d8 1A61     		str	r2, [r3, #16]
 104:Core/Src/spi.c ****     hdma_spi1_rx.Init.PeriphDataAlignment = DMA_PDATAALIGN_BYTE;
 276              		.loc 1 104 43
 277 00da 2F4B     		ldr	r3, .L11+16
 278 00dc 0022     		movs	r2, #0
 279 00de 5A61     		str	r2, [r3, #20]
 105:Core/Src/spi.c ****     hdma_spi1_rx.Init.MemDataAlignment = DMA_MDATAALIGN_BYTE;
 280              		.loc 1 105 40
 281 00e0 2D4B     		ldr	r3, .L11+16
 282 00e2 0022     		movs	r2, #0
 283 00e4 9A61     		str	r2, [r3, #24]
 106:Core/Src/spi.c ****     hdma_spi1_rx.Init.Mode = DMA_NORMAL;
 284              		.loc 1 106 28
 285 00e6 2C4B     		ldr	r3, .L11+16
 286 00e8 0022     		movs	r2, #0
 287 00ea DA61     		str	r2, [r3, #28]
 107:Core/Src/spi.c ****     hdma_spi1_rx.Init.Priority = DMA_PRIORITY_LOW;
 288              		.loc 1 107 32
 289 00ec 2A4B     		ldr	r3, .L11+16
ARM GAS  D:\msys64\tmp\cc7GdxsV.s 			page 8


 290 00ee 0022     		movs	r2, #0
 291 00f0 1A62     		str	r2, [r3, #32]
 108:Core/Src/spi.c ****     hdma_spi1_rx.Init.FIFOMode = DMA_FIFOMODE_DISABLE;
 292              		.loc 1 108 32
 293 00f2 294B     		ldr	r3, .L11+16
 294 00f4 0022     		movs	r2, #0
 295 00f6 5A62     		str	r2, [r3, #36]
 109:Core/Src/spi.c ****     if (HAL_DMA_Init(&hdma_spi1_rx) != HAL_OK)
 296              		.loc 1 109 9
 297 00f8 2748     		ldr	r0, .L11+16
 298 00fa FFF7FEFF 		bl	HAL_DMA_Init
 299 00fe 0346     		mov	r3, r0
 300              		.loc 1 109 8 discriminator 1
 301 0100 002B     		cmp	r3, #0
 302 0102 01D0     		beq	.L8
 110:Core/Src/spi.c ****     {
 111:Core/Src/spi.c ****       Error_Handler();
 303              		.loc 1 111 7
 304 0104 FFF7FEFF 		bl	Error_Handler
 305              	.L8:
 112:Core/Src/spi.c ****     }
 113:Core/Src/spi.c **** 
 114:Core/Src/spi.c ****     __HAL_LINKDMA(spiHandle,hdmarx,hdma_spi1_rx);
 306              		.loc 1 114 5
 307 0108 7B68     		ldr	r3, [r7, #4]
 308 010a 234A     		ldr	r2, .L11+16
 309 010c DA64     		str	r2, [r3, #76]
 310 010e 224A     		ldr	r2, .L11+16
 311 0110 7B68     		ldr	r3, [r7, #4]
 312 0112 9363     		str	r3, [r2, #56]
 115:Core/Src/spi.c **** 
 116:Core/Src/spi.c ****     /* SPI1_TX Init */
 117:Core/Src/spi.c ****     hdma_spi1_tx.Instance = DMA2_Stream3;
 313              		.loc 1 117 27
 314 0114 224B     		ldr	r3, .L11+24
 315 0116 234A     		ldr	r2, .L11+28
 316 0118 1A60     		str	r2, [r3]
 118:Core/Src/spi.c ****     hdma_spi1_tx.Init.Channel = DMA_CHANNEL_3;
 317              		.loc 1 118 31
 318 011a 214B     		ldr	r3, .L11+24
 319 011c 4FF0C062 		mov	r2, #100663296
 320 0120 5A60     		str	r2, [r3, #4]
 119:Core/Src/spi.c ****     hdma_spi1_tx.Init.Direction = DMA_MEMORY_TO_PERIPH;
 321              		.loc 1 119 33
 322 0122 1F4B     		ldr	r3, .L11+24
 323 0124 4022     		movs	r2, #64
 324 0126 9A60     		str	r2, [r3, #8]
 120:Core/Src/spi.c ****     hdma_spi1_tx.Init.PeriphInc = DMA_PINC_DISABLE;
 325              		.loc 1 120 33
 326 0128 1D4B     		ldr	r3, .L11+24
 327 012a 0022     		movs	r2, #0
 328 012c DA60     		str	r2, [r3, #12]
 121:Core/Src/spi.c ****     hdma_spi1_tx.Init.MemInc = DMA_MINC_ENABLE;
 329              		.loc 1 121 30
 330 012e 1C4B     		ldr	r3, .L11+24
 331 0130 4FF48062 		mov	r2, #1024
 332 0134 1A61     		str	r2, [r3, #16]
ARM GAS  D:\msys64\tmp\cc7GdxsV.s 			page 9


 122:Core/Src/spi.c ****     hdma_spi1_tx.Init.PeriphDataAlignment = DMA_PDATAALIGN_BYTE;
 333              		.loc 1 122 43
 334 0136 1A4B     		ldr	r3, .L11+24
 335 0138 0022     		movs	r2, #0
 336 013a 5A61     		str	r2, [r3, #20]
 123:Core/Src/spi.c ****     hdma_spi1_tx.Init.MemDataAlignment = DMA_MDATAALIGN_BYTE;
 337              		.loc 1 123 40
 338 013c 184B     		ldr	r3, .L11+24
 339 013e 0022     		movs	r2, #0
 340 0140 9A61     		str	r2, [r3, #24]
 124:Core/Src/spi.c ****     hdma_spi1_tx.Init.Mode = DMA_NORMAL;
 341              		.loc 1 124 28
 342 0142 174B     		ldr	r3, .L11+24
 343 0144 0022     		movs	r2, #0
 344 0146 DA61     		str	r2, [r3, #28]
 125:Core/Src/spi.c ****     hdma_spi1_tx.Init.Priority = DMA_PRIORITY_LOW;
 345              		.loc 1 125 32
 346 0148 154B     		ldr	r3, .L11+24
 347 014a 0022     		movs	r2, #0
 348 014c 1A62     		str	r2, [r3, #32]
 126:Core/Src/spi.c ****     hdma_spi1_tx.Init.FIFOMode = DMA_FIFOMODE_DISABLE;
 349              		.loc 1 126 32
 350 014e 144B     		ldr	r3, .L11+24
 351 0150 0022     		movs	r2, #0
 352 0152 5A62     		str	r2, [r3, #36]
 127:Core/Src/spi.c ****     if (HAL_DMA_Init(&hdma_spi1_tx) != HAL_OK)
 353              		.loc 1 127 9
 354 0154 1248     		ldr	r0, .L11+24
 355 0156 FFF7FEFF 		bl	HAL_DMA_Init
 356 015a 0346     		mov	r3, r0
 357              		.loc 1 127 8 discriminator 1
 358 015c 002B     		cmp	r3, #0
 359 015e 01D0     		beq	.L9
 128:Core/Src/spi.c ****     {
 129:Core/Src/spi.c ****       Error_Handler();
 360              		.loc 1 129 7
 361 0160 FFF7FEFF 		bl	Error_Handler
 362              	.L9:
 130:Core/Src/spi.c ****     }
 131:Core/Src/spi.c **** 
 132:Core/Src/spi.c ****     __HAL_LINKDMA(spiHandle,hdmatx,hdma_spi1_tx);
 363              		.loc 1 132 5
 364 0164 7B68     		ldr	r3, [r7, #4]
 365 0166 0E4A     		ldr	r2, .L11+24
 366 0168 9A64     		str	r2, [r3, #72]
 367 016a 0D4A     		ldr	r2, .L11+24
 368 016c 7B68     		ldr	r3, [r7, #4]
 369 016e 9363     		str	r3, [r2, #56]
 133:Core/Src/spi.c **** 
 134:Core/Src/spi.c ****     /* SPI1 interrupt Init */
 135:Core/Src/spi.c ****     HAL_NVIC_SetPriority(SPI1_IRQn, 5, 0);
 370              		.loc 1 135 5
 371 0170 0022     		movs	r2, #0
 372 0172 0521     		movs	r1, #5
 373 0174 2320     		movs	r0, #35
 374 0176 FFF7FEFF 		bl	HAL_NVIC_SetPriority
 136:Core/Src/spi.c ****     HAL_NVIC_EnableIRQ(SPI1_IRQn);
ARM GAS  D:\msys64\tmp\cc7GdxsV.s 			page 10


 375              		.loc 1 136 5
 376 017a 2320     		movs	r0, #35
 377 017c FFF7FEFF 		bl	HAL_NVIC_EnableIRQ
 378              	.L10:
 137:Core/Src/spi.c ****   /* USER CODE BEGIN SPI1_MspInit 1 */
 138:Core/Src/spi.c **** 
 139:Core/Src/spi.c ****   /* USER CODE END SPI1_MspInit 1 */
 140:Core/Src/spi.c ****   }
 141:Core/Src/spi.c **** }
 379              		.loc 1 141 1
 380 0180 00BF     		nop
 381 0182 2837     		adds	r7, r7, #40
 382              	.LCFI5:
 383              		.cfi_def_cfa_offset 8
 384 0184 BD46     		mov	sp, r7
 385              	.LCFI6:
 386              		.cfi_def_cfa_register 13
 387              		@ sp needed
 388 0186 80BD     		pop	{r7, pc}
 389              	.L12:
 390              		.align	2
 391              	.L11:
 392 0188 00300140 		.word	1073819648
 393 018c 00380240 		.word	1073887232
 394 0190 00040240 		.word	1073873920
 395 0194 00000240 		.word	1073872896
 396 0198 00000000 		.word	hdma_spi1_rx
 397 019c 10640240 		.word	1073898512
 398 01a0 00000000 		.word	hdma_spi1_tx
 399 01a4 58640240 		.word	1073898584
 400              		.cfi_endproc
 401              	.LFE135:
 403              		.section	.text.HAL_SPI_MspDeInit,"ax",%progbits
 404              		.align	1
 405              		.global	HAL_SPI_MspDeInit
 406              		.syntax unified
 407              		.thumb
 408              		.thumb_func
 410              	HAL_SPI_MspDeInit:
 411              	.LFB136:
 142:Core/Src/spi.c **** 
 143:Core/Src/spi.c **** void HAL_SPI_MspDeInit(SPI_HandleTypeDef* spiHandle)
 144:Core/Src/spi.c **** {
 412              		.loc 1 144 1
 413              		.cfi_startproc
 414              		@ args = 0, pretend = 0, frame = 8
 415              		@ frame_needed = 1, uses_anonymous_args = 0
 416 0000 80B5     		push	{r7, lr}
 417              	.LCFI7:
 418              		.cfi_def_cfa_offset 8
 419              		.cfi_offset 7, -8
 420              		.cfi_offset 14, -4
 421 0002 82B0     		sub	sp, sp, #8
 422              	.LCFI8:
 423              		.cfi_def_cfa_offset 16
 424 0004 00AF     		add	r7, sp, #0
 425              	.LCFI9:
ARM GAS  D:\msys64\tmp\cc7GdxsV.s 			page 11


 426              		.cfi_def_cfa_register 7
 427 0006 7860     		str	r0, [r7, #4]
 145:Core/Src/spi.c **** 
 146:Core/Src/spi.c ****   if(spiHandle->Instance==SPI1)
 428              		.loc 1 146 15
 429 0008 7B68     		ldr	r3, [r7, #4]
 430 000a 1B68     		ldr	r3, [r3]
 431              		.loc 1 146 5
 432 000c 104A     		ldr	r2, .L16
 433 000e 9342     		cmp	r3, r2
 434 0010 1AD1     		bne	.L15
 147:Core/Src/spi.c ****   {
 148:Core/Src/spi.c ****   /* USER CODE BEGIN SPI1_MspDeInit 0 */
 149:Core/Src/spi.c **** 
 150:Core/Src/spi.c ****   /* USER CODE END SPI1_MspDeInit 0 */
 151:Core/Src/spi.c ****     /* Peripheral clock disable */
 152:Core/Src/spi.c ****     __HAL_RCC_SPI1_CLK_DISABLE();
 435              		.loc 1 152 5
 436 0012 104B     		ldr	r3, .L16+4
 437 0014 5B6C     		ldr	r3, [r3, #68]
 438 0016 0F4A     		ldr	r2, .L16+4
 439 0018 23F48053 		bic	r3, r3, #4096
 440 001c 5364     		str	r3, [r2, #68]
 153:Core/Src/spi.c **** 
 154:Core/Src/spi.c ****     /**SPI1 GPIO Configuration
 155:Core/Src/spi.c ****     PB4     ------> SPI1_MISO
 156:Core/Src/spi.c ****     PB3     ------> SPI1_SCK
 157:Core/Src/spi.c ****     PA7     ------> SPI1_MOSI
 158:Core/Src/spi.c ****     */
 159:Core/Src/spi.c ****     HAL_GPIO_DeInit(GPIOB, GPIO_PIN_4|GPIO_PIN_3);
 441              		.loc 1 159 5
 442 001e 1821     		movs	r1, #24
 443 0020 0D48     		ldr	r0, .L16+8
 444 0022 FFF7FEFF 		bl	HAL_GPIO_DeInit
 160:Core/Src/spi.c **** 
 161:Core/Src/spi.c ****     HAL_GPIO_DeInit(GPIOA, GPIO_PIN_7);
 445              		.loc 1 161 5
 446 0026 8021     		movs	r1, #128
 447 0028 0C48     		ldr	r0, .L16+12
 448 002a FFF7FEFF 		bl	HAL_GPIO_DeInit
 162:Core/Src/spi.c **** 
 163:Core/Src/spi.c ****     /* SPI1 DMA DeInit */
 164:Core/Src/spi.c ****     HAL_DMA_DeInit(spiHandle->hdmarx);
 449              		.loc 1 164 5
 450 002e 7B68     		ldr	r3, [r7, #4]
 451 0030 DB6C     		ldr	r3, [r3, #76]
 452 0032 1846     		mov	r0, r3
 453 0034 FFF7FEFF 		bl	HAL_DMA_DeInit
 165:Core/Src/spi.c ****     HAL_DMA_DeInit(spiHandle->hdmatx);
 454              		.loc 1 165 5
 455 0038 7B68     		ldr	r3, [r7, #4]
 456 003a 9B6C     		ldr	r3, [r3, #72]
 457 003c 1846     		mov	r0, r3
 458 003e FFF7FEFF 		bl	HAL_DMA_DeInit
 166:Core/Src/spi.c **** 
 167:Core/Src/spi.c ****     /* SPI1 interrupt Deinit */
 168:Core/Src/spi.c ****     HAL_NVIC_DisableIRQ(SPI1_IRQn);
ARM GAS  D:\msys64\tmp\cc7GdxsV.s 			page 12


 459              		.loc 1 168 5
 460 0042 2320     		movs	r0, #35
 461 0044 FFF7FEFF 		bl	HAL_NVIC_DisableIRQ
 462              	.L15:
 169:Core/Src/spi.c ****   /* USER CODE BEGIN SPI1_MspDeInit 1 */
 170:Core/Src/spi.c **** 
 171:Core/Src/spi.c ****   /* USER CODE END SPI1_MspDeInit 1 */
 172:Core/Src/spi.c ****   }
 173:Core/Src/spi.c **** }
 463              		.loc 1 173 1
 464 0048 00BF     		nop
 465 004a 0837     		adds	r7, r7, #8
 466              	.LCFI10:
 467              		.cfi_def_cfa_offset 8
 468 004c BD46     		mov	sp, r7
 469              	.LCFI11:
 470              		.cfi_def_cfa_register 13
 471              		@ sp needed
 472 004e 80BD     		pop	{r7, pc}
 473              	.L17:
 474              		.align	2
 475              	.L16:
 476 0050 00300140 		.word	1073819648
 477 0054 00380240 		.word	1073887232
 478 0058 00040240 		.word	1073873920
 479 005c 00000240 		.word	1073872896
 480              		.cfi_endproc
 481              	.LFE136:
 483              		.text
 484              	.Letext0:
 485              		.file 2 "Drivers/CMSIS/Device/ST/STM32F4xx/Include/stm32f407xx.h"
 486              		.file 3 "D:/msys64/mingw64/arm-none-eabi/include/machine/_default_types.h"
 487              		.file 4 "D:/msys64/mingw64/arm-none-eabi/include/sys/_stdint.h"
 488              		.file 5 "Drivers/STM32F4xx_HAL_Driver/Inc/stm32f4xx_hal_def.h"
 489              		.file 6 "Drivers/STM32F4xx_HAL_Driver/Inc/stm32f4xx_hal_gpio.h"
 490              		.file 7 "Drivers/STM32F4xx_HAL_Driver/Inc/stm32f4xx_hal_dma.h"
 491              		.file 8 "Drivers/STM32F4xx_HAL_Driver/Inc/stm32f4xx_hal_spi.h"
 492              		.file 9 "Core/Inc/spi.h"
 493              		.file 10 "Drivers/STM32F4xx_HAL_Driver/Inc/stm32f4xx_hal_cortex.h"
 494              		.file 11 "Core/Inc/main.h"
ARM GAS  D:\msys64\tmp\cc7GdxsV.s 			page 13

